
/home/rtthread-smart/userapps/root/bin/timer_thread.elf:     file format elf64-littleaarch64


Disassembly of section .text:

0000000000200000 <_start>:
  200000:	9100007f 	mov	sp, x3
  200004:	14000001 	b	200008 <_start_c>

0000000000200008 <_start_c>:
  200008:	b0000082 	adrp	x2, 211000 <__subtf3+0x7d0>
  20000c:	b0000081 	adrp	x1, 211000 <__subtf3+0x7d0>
  200010:	f81f0ffe 	str	x30, [sp, #-16]!
  200014:	f0000006 	adrp	x6, 203000 <rt_tick_from_millisecond+0xa0>
  200018:	f9446444 	ldr	x4, [x2, #2248]
  20001c:	d2800005 	mov	x5, #0x0                   	// #0
  200020:	f9446823 	ldr	x3, [x1, #2256]
  200024:	91002002 	add	x2, x0, #0x8
  200028:	b9400001 	ldr	w1, [x0]
  20002c:	9106a0c0 	add	x0, x6, #0x1a8
  200030:	94000d2a 	bl	2034d8 <__libc_start_main>
  200034:	00000000 	.inst	0x00000000 ; undefined

0000000000200038 <deregister_tm_clones>:
  200038:	b00000a0 	adrp	x0, 215000 <__data_start__>
  20003c:	91082000 	add	x0, x0, #0x208
  200040:	b00000a1 	adrp	x1, 215000 <__data_start__>
  200044:	91082021 	add	x1, x1, #0x208
  200048:	eb00003f 	cmp	x1, x0
  20004c:	540000a0 	b.eq	200060 <deregister_tm_clones+0x28>  // b.none
  200050:	b0000081 	adrp	x1, 211000 <__subtf3+0x7d0>
  200054:	f9446c21 	ldr	x1, [x1, #2264]
  200058:	b4000041 	cbz	x1, 200060 <deregister_tm_clones+0x28>
  20005c:	d61f0020 	br	x1
  200060:	d65f03c0 	ret
  200064:	d503201f 	nop

0000000000200068 <register_tm_clones>:
  200068:	b00000a0 	adrp	x0, 215000 <__data_start__>
  20006c:	91082000 	add	x0, x0, #0x208
  200070:	b00000a1 	adrp	x1, 215000 <__data_start__>
  200074:	91082021 	add	x1, x1, #0x208
  200078:	cb000021 	sub	x1, x1, x0
  20007c:	9343fc21 	asr	x1, x1, #3
  200080:	8b41fc21 	add	x1, x1, x1, lsr #63
  200084:	9341fc21 	asr	x1, x1, #1
  200088:	b40000c1 	cbz	x1, 2000a0 <register_tm_clones+0x38>
  20008c:	b0000082 	adrp	x2, 211000 <__subtf3+0x7d0>
  200090:	f9447042 	ldr	x2, [x2, #2272]
  200094:	b4000062 	cbz	x2, 2000a0 <register_tm_clones+0x38>
  200098:	d61f0040 	br	x2
  20009c:	d503201f 	nop
  2000a0:	d65f03c0 	ret
  2000a4:	d503201f 	nop

00000000002000a8 <__do_global_dtors_aux>:
  2000a8:	a9be7bfd 	stp	x29, x30, [sp, #-32]!
  2000ac:	910003fd 	mov	x29, sp
  2000b0:	f9000bf3 	str	x19, [sp, #16]
  2000b4:	b00000b3 	adrp	x19, 215000 <__data_start__>
  2000b8:	39482260 	ldrb	w0, [x19, #520]
  2000bc:	35000140 	cbnz	w0, 2000e4 <__do_global_dtors_aux+0x3c>
  2000c0:	97ffffde 	bl	200038 <deregister_tm_clones>
  2000c4:	b0000080 	adrp	x0, 211000 <__subtf3+0x7d0>
  2000c8:	f9447400 	ldr	x0, [x0, #2280]
  2000cc:	b4000080 	cbz	x0, 2000dc <__do_global_dtors_aux+0x34>
  2000d0:	900000a0 	adrp	x0, 214000 <syscall_table+0x800>
  2000d4:	91231000 	add	x0, x0, #0x8c4
  2000d8:	d503201f 	nop
  2000dc:	52800020 	mov	w0, #0x1                   	// #1
  2000e0:	39082260 	strb	w0, [x19, #520]
  2000e4:	f9400bf3 	ldr	x19, [sp, #16]
  2000e8:	a8c27bfd 	ldp	x29, x30, [sp], #32
  2000ec:	d65f03c0 	ret

00000000002000f0 <frame_dummy>:
  2000f0:	b0000080 	adrp	x0, 211000 <__subtf3+0x7d0>
  2000f4:	f9447800 	ldr	x0, [x0, #2288]
  2000f8:	b4000140 	cbz	x0, 200120 <frame_dummy+0x30>
  2000fc:	a9bf7bfd 	stp	x29, x30, [sp, #-16]!
  200100:	b00000a1 	adrp	x1, 215000 <__data_start__>
  200104:	900000a0 	adrp	x0, 214000 <syscall_table+0x800>
  200108:	91084021 	add	x1, x1, #0x210
  20010c:	910003fd 	mov	x29, sp
  200110:	91231000 	add	x0, x0, #0x8c4
  200114:	d503201f 	nop
  200118:	a8c17bfd 	ldp	x29, x30, [sp], #16
  20011c:	17ffffd3 	b	200068 <register_tm_clones>
  200120:	17ffffd2 	b	200068 <register_tm_clones>

0000000000200124 <rt_channel_open>:

#include <sys/rtt_syscall.h>
#include <rtthread.h>

int rt_channel_open(const char *name, int flags)
{
  200124:	a9be7bfd 	stp	x29, x30, [sp, #-32]!
  200128:	910003fd 	mov	x29, sp
  20012c:	f9000fa0 	str	x0, [x29, #24]
  200130:	b90017a1 	str	w1, [x29, #20]
    return syscall(_NRSYS_channel_open, name, flags);
  200134:	b94017a2 	ldr	w2, [x29, #20]
  200138:	f9400fa1 	ldr	x1, [x29, #24]
  20013c:	52800580 	mov	w0, #0x2c                  	// #44
  200140:	94000dd7 	bl	20389c <syscall>
}
  200144:	a8c27bfd 	ldp	x29, x30, [sp], #32
  200148:	d65f03c0 	ret

000000000020014c <rt_channel_close>:

rt_err_t rt_channel_close(int fd)
{
  20014c:	a9be7bfd 	stp	x29, x30, [sp, #-32]!
  200150:	910003fd 	mov	x29, sp
  200154:	b9001fa0 	str	w0, [x29, #28]
    return syscall(_NRSYS_channel_close, fd);
  200158:	b9401fa1 	ldr	w1, [x29, #28]
  20015c:	528005a0 	mov	w0, #0x2d                  	// #45
  200160:	94000dcf 	bl	20389c <syscall>
}
  200164:	a8c27bfd 	ldp	x29, x30, [sp], #32
  200168:	d65f03c0 	ret

000000000020016c <rt_channel_send_recv>:

rt_err_t rt_channel_send_recv(int fd, rt_channel_msg_t data, rt_channel_msg_t data_ret)
{
  20016c:	a9bd7bfd 	stp	x29, x30, [sp, #-48]!
  200170:	910003fd 	mov	x29, sp
  200174:	b9002fa0 	str	w0, [x29, #44]
  200178:	f90013a1 	str	x1, [x29, #32]
  20017c:	f9000fa2 	str	x2, [x29, #24]
    return syscall(_NRSYS_channel_send_recv_timeout, fd, data, data_ret, RT_WAITING_FOREVER);
  200180:	12800004 	mov	w4, #0xffffffff            	// #-1
  200184:	f9400fa3 	ldr	x3, [x29, #24]
  200188:	f94013a2 	ldr	x2, [x29, #32]
  20018c:	b9402fa1 	ldr	w1, [x29, #44]
  200190:	528005e0 	mov	w0, #0x2f                  	// #47
  200194:	94000dc2 	bl	20389c <syscall>
}
  200198:	a8c37bfd 	ldp	x29, x30, [sp], #48
  20019c:	d65f03c0 	ret

00000000002001a0 <rt_channel_send_recv_timeout>:

rt_err_t rt_channel_send_recv_timeout(int fd, rt_channel_msg_t data, rt_channel_msg_t data_ret, rt_int32_t time)
{
  2001a0:	a9bd7bfd 	stp	x29, x30, [sp, #-48]!
  2001a4:	910003fd 	mov	x29, sp
  2001a8:	b9002fa0 	str	w0, [x29, #44]
  2001ac:	f90013a1 	str	x1, [x29, #32]
  2001b0:	f9000fa2 	str	x2, [x29, #24]
  2001b4:	b9002ba3 	str	w3, [x29, #40]
    return syscall(_NRSYS_channel_send_recv_timeout, fd, data, data_ret, time);
  2001b8:	b9402ba4 	ldr	w4, [x29, #40]
  2001bc:	f9400fa3 	ldr	x3, [x29, #24]
  2001c0:	f94013a2 	ldr	x2, [x29, #32]
  2001c4:	b9402fa1 	ldr	w1, [x29, #44]
  2001c8:	528005e0 	mov	w0, #0x2f                  	// #47
  2001cc:	94000db4 	bl	20389c <syscall>
}
  2001d0:	a8c37bfd 	ldp	x29, x30, [sp], #48
  2001d4:	d65f03c0 	ret

00000000002001d8 <rt_channel_send>:

rt_err_t rt_channel_send(int fd, rt_channel_msg_t data)
{
  2001d8:	a9be7bfd 	stp	x29, x30, [sp, #-32]!
  2001dc:	910003fd 	mov	x29, sp
  2001e0:	b9001fa0 	str	w0, [x29, #28]
  2001e4:	f9000ba1 	str	x1, [x29, #16]
    return syscall(_NRSYS_channel_send, fd, data);
  2001e8:	f9400ba2 	ldr	x2, [x29, #16]
  2001ec:	b9401fa1 	ldr	w1, [x29, #28]
  2001f0:	528005c0 	mov	w0, #0x2e                  	// #46
  2001f4:	94000daa 	bl	20389c <syscall>
}
  2001f8:	a8c27bfd 	ldp	x29, x30, [sp], #32
  2001fc:	d65f03c0 	ret

0000000000200200 <rt_channel_reply>:

rt_err_t rt_channel_reply(int fd, rt_channel_msg_t data)
{
  200200:	a9be7bfd 	stp	x29, x30, [sp, #-32]!
  200204:	910003fd 	mov	x29, sp
  200208:	b9001fa0 	str	w0, [x29, #28]
  20020c:	f9000ba1 	str	x1, [x29, #16]
    return syscall(_NRSYS_channel_reply, fd, data);
  200210:	f9400ba2 	ldr	x2, [x29, #16]
  200214:	b9401fa1 	ldr	w1, [x29, #28]
  200218:	52800600 	mov	w0, #0x30                  	// #48
  20021c:	94000da0 	bl	20389c <syscall>
}
  200220:	a8c27bfd 	ldp	x29, x30, [sp], #32
  200224:	d65f03c0 	ret

0000000000200228 <rt_channel_recv>:

rt_err_t rt_channel_recv(int fd, rt_channel_msg_t data)
{
  200228:	a9be7bfd 	stp	x29, x30, [sp, #-32]!
  20022c:	910003fd 	mov	x29, sp
  200230:	b9001fa0 	str	w0, [x29, #28]
  200234:	f9000ba1 	str	x1, [x29, #16]
    return syscall(_NRSYS_channel_recv_timeout, fd, data, RT_WAITING_FOREVER);
  200238:	12800003 	mov	w3, #0xffffffff            	// #-1
  20023c:	f9400ba2 	ldr	x2, [x29, #16]
  200240:	b9401fa1 	ldr	w1, [x29, #28]
  200244:	52800620 	mov	w0, #0x31                  	// #49
  200248:	94000d95 	bl	20389c <syscall>
}
  20024c:	a8c27bfd 	ldp	x29, x30, [sp], #32
  200250:	d65f03c0 	ret

0000000000200254 <rt_channel_recv_timeout>:

rt_err_t rt_channel_recv_timeout(int fd, rt_channel_msg_t data, rt_int32_t time)
{
  200254:	a9be7bfd 	stp	x29, x30, [sp, #-32]!
  200258:	910003fd 	mov	x29, sp
  20025c:	b9001fa0 	str	w0, [x29, #28]
  200260:	f9000ba1 	str	x1, [x29, #16]
  200264:	b9001ba2 	str	w2, [x29, #24]
    return syscall(_NRSYS_channel_recv_timeout, fd, data, time);
  200268:	b9401ba3 	ldr	w3, [x29, #24]
  20026c:	f9400ba2 	ldr	x2, [x29, #16]
  200270:	b9401fa1 	ldr	w1, [x29, #28]
  200274:	52800620 	mov	w0, #0x31                  	// #49
  200278:	94000d89 	bl	20389c <syscall>
}
  20027c:	a8c27bfd 	ldp	x29, x30, [sp], #32
  200280:	d65f03c0 	ret

0000000000200284 <rt_channel_peek>:

rt_err_t rt_channel_peek(int fd, rt_channel_msg_t data)
{
  200284:	a9be7bfd 	stp	x29, x30, [sp, #-32]!
  200288:	910003fd 	mov	x29, sp
  20028c:	b9001fa0 	str	w0, [x29, #28]
  200290:	f9000ba1 	str	x1, [x29, #16]
    return syscall(_NRSYS_channel_recv_timeout, fd, data, 0);
  200294:	52800003 	mov	w3, #0x0                   	// #0
  200298:	f9400ba2 	ldr	x2, [x29, #16]
  20029c:	b9401fa1 	ldr	w1, [x29, #28]
  2002a0:	52800620 	mov	w0, #0x31                  	// #49
  2002a4:	94000d7e 	bl	20389c <syscall>
}
  2002a8:	a8c27bfd 	ldp	x29, x30, [sp], #32
  2002ac:	d65f03c0 	ret

00000000002002b0 <rt_completion_init>:
 * 2019-10-01     Bernard      code cleanup
 */
#include <rtdevice.h>

void rt_completion_init(struct rt_completion *completion)
{
  2002b0:	a9be7bfd 	stp	x29, x30, [sp, #-32]!
  2002b4:	910003fd 	mov	x29, sp
  2002b8:	f9000fa0 	str	x0, [x29, #24]
    if (completion && completion->flag == 0)
  2002bc:	f9400fa0 	ldr	x0, [x29, #24]
  2002c0:	f100001f 	cmp	x0, #0x0
  2002c4:	540001e0 	b.eq	200300 <rt_completion_init+0x50>  // b.none
  2002c8:	f9400fa0 	ldr	x0, [x29, #24]
  2002cc:	b9400000 	ldr	w0, [x0]
  2002d0:	7100001f 	cmp	w0, #0x0
  2002d4:	54000161 	b.ne	200300 <rt_completion_init+0x50>  // b.any
    {
        completion->flag = 0x5A5A;
  2002d8:	f9400fa0 	ldr	x0, [x29, #24]
  2002dc:	528b4b41 	mov	w1, #0x5a5a                	// #23130
  2002e0:	b9000001 	str	w1, [x0]
        completion->wait_event = rt_event_create("completion", RT_IPC_FLAG_FIFO);
  2002e4:	b0000080 	adrp	x0, 211000 <__subtf3+0x7d0>
  2002e8:	9123e000 	add	x0, x0, #0x8f8
  2002ec:	52800001 	mov	w1, #0x0                   	// #0
  2002f0:	94000546 	bl	201808 <rt_event_create>
  2002f4:	aa0003e1 	mov	x1, x0
  2002f8:	f9400fa0 	ldr	x0, [x29, #24]
  2002fc:	f9000401 	str	x1, [x0, #8]
    }
}
  200300:	d503201f 	nop
  200304:	a8c27bfd 	ldp	x29, x30, [sp], #32
  200308:	d65f03c0 	ret

000000000020030c <rt_completion_wait>:

rt_err_t rt_completion_wait(struct rt_completion *completion,
    rt_int32_t timeout)
{
  20030c:	a9bd7bfd 	stp	x29, x30, [sp, #-48]!
  200310:	910003fd 	mov	x29, sp
  200314:	f9000fa0 	str	x0, [x29, #24]
  200318:	b90017a1 	str	w1, [x29, #20]
    rt_err_t ret;
    rt_uint32_t recv = 0;
  20031c:	b90027bf 	str	wzr, [x29, #36]

    ret = rt_event_recv(completion->wait_event, 0x01, RT_EVENT_FLAG_OR | RT_EVENT_FLAG_CLEAR, timeout, &recv);
  200320:	f9400fa0 	ldr	x0, [x29, #24]
  200324:	f9400400 	ldr	x0, [x0, #8]
  200328:	910093a1 	add	x1, x29, #0x24
  20032c:	aa0103e4 	mov	x4, x1
  200330:	b94017a3 	ldr	w3, [x29, #20]
  200334:	528000c2 	mov	w2, #0x6                   	// #6
  200338:	52800021 	mov	w1, #0x1                   	// #1
  20033c:	940005d4 	bl	201a8c <rt_event_recv>
  200340:	f90017a0 	str	x0, [x29, #40]

    return ret;
  200344:	f94017a0 	ldr	x0, [x29, #40]
}
  200348:	a8c37bfd 	ldp	x29, x30, [sp], #48
  20034c:	d65f03c0 	ret

0000000000200350 <rt_completion_done>:

void rt_completion_done(struct rt_completion *completion)
{
  200350:	a9be7bfd 	stp	x29, x30, [sp, #-32]!
  200354:	910003fd 	mov	x29, sp
  200358:	f9000fa0 	str	x0, [x29, #24]
    rt_event_send(completion->wait_event, 0x01);
  20035c:	f9400fa0 	ldr	x0, [x29, #24]
  200360:	f9400400 	ldr	x0, [x0, #8]
  200364:	52800021 	mov	w1, #0x1                   	// #1
  200368:	940005ae 	bl	201a20 <rt_event_send>
}
  20036c:	d503201f 	nop
  200370:	a8c27bfd 	ldp	x29, x30, [sp], #32
  200374:	d65f03c0 	ret

0000000000200378 <rt_device_init>:

#include <sys/rtt_syscall.h>
#include <rtthread.h>

rt_err_t rt_device_init(rt_device_t dev)
{
  200378:	a9be7bfd 	stp	x29, x30, [sp, #-32]!
  20037c:	910003fd 	mov	x29, sp
  200380:	f9000fa0 	str	x0, [x29, #24]
    return syscall(_NRSYS_rt_device_init, dev);
  200384:	f9400fa1 	ldr	x1, [x29, #24]
  200388:	52800760 	mov	w0, #0x3b                  	// #59
  20038c:	94000d44 	bl	20389c <syscall>
}
  200390:	a8c27bfd 	ldp	x29, x30, [sp], #32
  200394:	d65f03c0 	ret

0000000000200398 <rt_device_register>:

rt_err_t rt_device_register(rt_device_t dev,
        const char *name,
        rt_uint16_t flags)
{
  200398:	a9bd7bfd 	stp	x29, x30, [sp, #-48]!
  20039c:	910003fd 	mov	x29, sp
  2003a0:	f90017a0 	str	x0, [x29, #40]
  2003a4:	f90013a1 	str	x1, [x29, #32]
  2003a8:	79003fa2 	strh	w2, [x29, #30]
    return syscall(_NRSYS_rt_device_register, dev, name, flags);
  2003ac:	79403fa0 	ldrh	w0, [x29, #30]
  2003b0:	2a0003e3 	mov	w3, w0
  2003b4:	f94013a2 	ldr	x2, [x29, #32]
  2003b8:	f94017a1 	ldr	x1, [x29, #40]
  2003bc:	52800780 	mov	w0, #0x3c                  	// #60
  2003c0:	94000d37 	bl	20389c <syscall>
}
  2003c4:	a8c37bfd 	ldp	x29, x30, [sp], #48
  2003c8:	d65f03c0 	ret

00000000002003cc <rt_device_control>:

rt_err_t rt_device_control(rt_device_t dev, int cmd, void *arg)
{
  2003cc:	a9bd7bfd 	stp	x29, x30, [sp, #-48]!
  2003d0:	910003fd 	mov	x29, sp
  2003d4:	f90017a0 	str	x0, [x29, #40]
  2003d8:	b90027a1 	str	w1, [x29, #36]
  2003dc:	f9000fa2 	str	x2, [x29, #24]
    return syscall(_NRSYS_rt_device_control, dev, cmd, arg);
  2003e0:	f9400fa3 	ldr	x3, [x29, #24]
  2003e4:	b94027a2 	ldr	w2, [x29, #36]
  2003e8:	f94017a1 	ldr	x1, [x29, #40]
  2003ec:	528007a0 	mov	w0, #0x3d                  	// #61
  2003f0:	94000d2b 	bl	20389c <syscall>
}
  2003f4:	a8c37bfd 	ldp	x29, x30, [sp], #48
  2003f8:	d65f03c0 	ret

00000000002003fc <rt_device_find>:

rt_device_t rt_device_find(const char *name)
{
  2003fc:	a9be7bfd 	stp	x29, x30, [sp, #-32]!
  200400:	910003fd 	mov	x29, sp
  200404:	f9000fa0 	str	x0, [x29, #24]
    return (rt_device_t)syscall(_NRSYS_rt_device_find, name);
  200408:	f9400fa1 	ldr	x1, [x29, #24]
  20040c:	528007c0 	mov	w0, #0x3e                  	// #62
  200410:	94000d23 	bl	20389c <syscall>
}
  200414:	a8c27bfd 	ldp	x29, x30, [sp], #32
  200418:	d65f03c0 	ret

000000000020041c <rt_device_open>:

rt_err_t rt_device_open(rt_device_t dev, rt_uint16_t oflag)
{
  20041c:	a9be7bfd 	stp	x29, x30, [sp, #-32]!
  200420:	910003fd 	mov	x29, sp
  200424:	f9000fa0 	str	x0, [x29, #24]
  200428:	79002fa1 	strh	w1, [x29, #22]
    return syscall(_NRSYS_rt_device_open, dev, oflag);
  20042c:	79402fa0 	ldrh	w0, [x29, #22]
  200430:	2a0003e2 	mov	w2, w0
  200434:	f9400fa1 	ldr	x1, [x29, #24]
  200438:	528007e0 	mov	w0, #0x3f                  	// #63
  20043c:	94000d18 	bl	20389c <syscall>
}
  200440:	a8c27bfd 	ldp	x29, x30, [sp], #32
  200444:	d65f03c0 	ret

0000000000200448 <rt_device_close>:

rt_err_t rt_device_close(rt_device_t dev)
{
  200448:	a9be7bfd 	stp	x29, x30, [sp, #-32]!
  20044c:	910003fd 	mov	x29, sp
  200450:	f9000fa0 	str	x0, [x29, #24]
    return syscall(_NRSYS_rt_device_close, dev);
  200454:	f9400fa1 	ldr	x1, [x29, #24]
  200458:	52800800 	mov	w0, #0x40                  	// #64
  20045c:	94000d10 	bl	20389c <syscall>
}
  200460:	a8c27bfd 	ldp	x29, x30, [sp], #32
  200464:	d65f03c0 	ret

0000000000200468 <rt_device_read>:

rt_size_t rt_device_read(rt_device_t dev,
        rt_off_t    pos,
        void       *buffer,
        rt_size_t   size)
{
  200468:	a9bd7bfd 	stp	x29, x30, [sp, #-48]!
  20046c:	910003fd 	mov	x29, sp
  200470:	f90017a0 	str	x0, [x29, #40]
  200474:	f90013a1 	str	x1, [x29, #32]
  200478:	f9000fa2 	str	x2, [x29, #24]
  20047c:	f9000ba3 	str	x3, [x29, #16]
    return syscall(_NRSYS_rt_device_read, dev, pos, buffer, size);
  200480:	f9400ba4 	ldr	x4, [x29, #16]
  200484:	f9400fa3 	ldr	x3, [x29, #24]
  200488:	f94013a2 	ldr	x2, [x29, #32]
  20048c:	f94017a1 	ldr	x1, [x29, #40]
  200490:	52800820 	mov	w0, #0x41                  	// #65
  200494:	94000d02 	bl	20389c <syscall>
}
  200498:	a8c37bfd 	ldp	x29, x30, [sp], #48
  20049c:	d65f03c0 	ret

00000000002004a0 <rt_device_write>:

rt_size_t rt_device_write(rt_device_t dev,
        rt_off_t    pos,
        const void *buffer,
        rt_size_t   size)
{
  2004a0:	a9bd7bfd 	stp	x29, x30, [sp, #-48]!
  2004a4:	910003fd 	mov	x29, sp
  2004a8:	f90017a0 	str	x0, [x29, #40]
  2004ac:	f90013a1 	str	x1, [x29, #32]
  2004b0:	f9000fa2 	str	x2, [x29, #24]
  2004b4:	f9000ba3 	str	x3, [x29, #16]
    return syscall(_NRSYS_rt_device_write, dev, pos, buffer, size);;
  2004b8:	f9400ba4 	ldr	x4, [x29, #16]
  2004bc:	f9400fa3 	ldr	x3, [x29, #24]
  2004c0:	f94013a2 	ldr	x2, [x29, #32]
  2004c4:	f94017a1 	ldr	x1, [x29, #40]
  2004c8:	52800840 	mov	w0, #0x42                  	// #66
  2004cc:	94000cf4 	bl	20389c <syscall>
}
  2004d0:	a8c37bfd 	ldp	x29, x30, [sp], #48
  2004d4:	d65f03c0 	ret

00000000002004d8 <closesocket>:
#include <netinet/in.h>
#include <fcntl.h>
#include <time.h>

int closesocket(int s)
{
  2004d8:	a9be7bfd 	stp	x29, x30, [sp, #-32]!
  2004dc:	910003fd 	mov	x29, sp
  2004e0:	b9001fa0 	str	w0, [x29, #28]
    return (int)syscall(_NRSYS_closesocket, s);
  2004e4:	b9401fa1 	ldr	w1, [x29, #28]
  2004e8:	52800a60 	mov	w0, #0x53                  	// #83
  2004ec:	94000cec 	bl	20389c <syscall>
}
  2004f0:	a8c27bfd 	ldp	x29, x30, [sp], #32
  2004f4:	d65f03c0 	ret

00000000002004f8 <getaddrinfo>:

int getaddrinfo(const char *restrict host, const char *restrict serv, const struct addrinfo *restrict hint, struct addrinfo **restrict res)
{
  2004f8:	a9bc7bfd 	stp	x29, x30, [sp, #-64]!
  2004fc:	910003fd 	mov	x29, sp
  200500:	f90017a0 	str	x0, [x29, #40]
  200504:	f90013a1 	str	x1, [x29, #32]
  200508:	f9000fa2 	str	x2, [x29, #24]
  20050c:	f9000ba3 	str	x3, [x29, #16]
    struct addrinfo *ret = NULL;
  200510:	f9001fbf 	str	xzr, [x29, #56]

    ret = (struct addrinfo *) malloc(sizeof(struct addrinfo) + sizeof(struct sockaddr));
  200514:	d2800800 	mov	x0, #0x40                  	// #64
  200518:	94001aec 	bl	2070c8 <malloc>
  20051c:	f9001fa0 	str	x0, [x29, #56]
    if (ret)
  200520:	f9401fa0 	ldr	x0, [x29, #56]
  200524:	f100001f 	cmp	x0, #0x0
  200528:	54000240 	b.eq	200570 <getaddrinfo+0x78>  // b.none
    {
        ret->ai_addr = (struct sockaddr *)(ret + 1);
  20052c:	f9401fa0 	ldr	x0, [x29, #56]
  200530:	9100c001 	add	x1, x0, #0x30
  200534:	f9401fa0 	ldr	x0, [x29, #56]
  200538:	f9000c01 	str	x1, [x0, #24]

        /* invoke syscall */
        int result = syscall(_NRSYS_getaddrinfo, host, serv, hint, ret);
  20053c:	f9401fa4 	ldr	x4, [x29, #56]
  200540:	f9400fa3 	ldr	x3, [x29, #24]
  200544:	f94013a2 	ldr	x2, [x29, #32]
  200548:	f94017a1 	ldr	x1, [x29, #40]
  20054c:	52800a80 	mov	w0, #0x54                  	// #84
  200550:	94000cd3 	bl	20389c <syscall>
  200554:	b90037a0 	str	w0, [x29, #52]
        if (result == 0)
  200558:	b94037a0 	ldr	w0, [x29, #52]
  20055c:	7100001f 	cmp	w0, #0x0
  200560:	54000081 	b.ne	200570 <getaddrinfo+0x78>  // b.any
        {
            *res = ret;
  200564:	f9400ba0 	ldr	x0, [x29, #16]
  200568:	f9401fa1 	ldr	x1, [x29, #56]
  20056c:	f9000001 	str	x1, [x0]
        }
    }

    return 0;
  200570:	52800000 	mov	w0, #0x0                   	// #0
}
  200574:	a8c47bfd 	ldp	x29, x30, [sp], #64
  200578:	d65f03c0 	ret

000000000020057c <freeaddrinfo>:

void freeaddrinfo(struct addrinfo *p)
{
  20057c:	a9be7bfd 	stp	x29, x30, [sp, #-32]!
  200580:	910003fd 	mov	x29, sp
  200584:	f9000fa0 	str	x0, [x29, #24]
    /* p->ai_canonname, p->ai_next should be NULL. */
    free(p);
  200588:	f9400fa0 	ldr	x0, [x29, #24]
  20058c:	94001c65 	bl	207720 <free>
}
  200590:	d503201f 	nop
  200594:	a8c27bfd 	ldp	x29, x30, [sp], #32
  200598:	d65f03c0 	ret

000000000020059c <gethostbyname2_r>:

int gethostbyname2_r(const char *name, int af, struct hostent *ret,
                    char *buf, size_t buflen,
                    struct hostent **result, int *err)
{
  20059c:	a9bb7bfd 	stp	x29, x30, [sp, #-80]!
  2005a0:	910003fd 	mov	x29, sp
  2005a4:	f90027a0 	str	x0, [x29, #72]
  2005a8:	b90047a1 	str	w1, [x29, #68]
  2005ac:	f9001fa2 	str	x2, [x29, #56]
  2005b0:	f9001ba3 	str	x3, [x29, #48]
  2005b4:	f90017a4 	str	x4, [x29, #40]
  2005b8:	f90013a5 	str	x5, [x29, #32]
  2005bc:	f9000fa6 	str	x6, [x29, #24]
    return syscall(_NRSYS_gethostbyname2_r, name, af, ret, buf, buflen, result, err);
  2005c0:	f9400fa7 	ldr	x7, [x29, #24]
  2005c4:	f94013a6 	ldr	x6, [x29, #32]
  2005c8:	f94017a5 	ldr	x5, [x29, #40]
  2005cc:	f9401ba4 	ldr	x4, [x29, #48]
  2005d0:	f9401fa3 	ldr	x3, [x29, #56]
  2005d4:	b94047a2 	ldr	w2, [x29, #68]
  2005d8:	f94027a1 	ldr	x1, [x29, #72]
  2005dc:	52800aa0 	mov	w0, #0x55                  	// #85
  2005e0:	94000caf 	bl	20389c <syscall>
}
  2005e4:	a8c57bfd 	ldp	x29, x30, [sp], #80
  2005e8:	d65f03c0 	ret

00000000002005ec <setnonblocking>:

/* set non-blocking */
static int setnonblocking(int fd)
{
  2005ec:	a9bd7bfd 	stp	x29, x30, [sp, #-48]!
  2005f0:	910003fd 	mov	x29, sp
  2005f4:	b9001fa0 	str	w0, [x29, #28]
    int old_option = fcntl( fd, F_GETFL, 0);
  2005f8:	52800002 	mov	w2, #0x0                   	// #0
  2005fc:	52800061 	mov	w1, #0x3                   	// #3
  200600:	b9401fa0 	ldr	w0, [x29, #28]
  200604:	94000c05 	bl	203618 <fcntl>
  200608:	b9002fa0 	str	w0, [x29, #44]
    int new_option = old_option | O_NONBLOCK;
  20060c:	b9402fa0 	ldr	w0, [x29, #44]
  200610:	32150000 	orr	w0, w0, #0x800
  200614:	b9002ba0 	str	w0, [x29, #40]
    if (fcntl(fd, F_SETFL, new_option) == -1)
  200618:	b9402ba2 	ldr	w2, [x29, #40]
  20061c:	52800081 	mov	w1, #0x4                   	// #4
  200620:	b9401fa0 	ldr	w0, [x29, #28]
  200624:	94000bfd 	bl	203618 <fcntl>
  200628:	3100041f 	cmn	w0, #0x1
  20062c:	540000c1 	b.ne	200644 <setnonblocking+0x58>  // b.any
    {
        printf("Set noblocking error!\n");
  200630:	b0000080 	adrp	x0, 211000 <__subtf3+0x7d0>
  200634:	91242000 	add	x0, x0, #0x908
  200638:	94001efc 	bl	208228 <puts>
        return 1;
  20063c:	52800020 	mov	w0, #0x1                   	// #1
  200640:	14000002 	b	200648 <setnonblocking+0x5c>
    }
    return old_option;
  200644:	b9402fa0 	ldr	w0, [x29, #44]
}
  200648:	a8c37bfd 	ldp	x29, x30, [sp], #48
  20064c:	d65f03c0 	ret

0000000000200650 <socketpair>:

int socketpair(int domain, int type, int protocol, int sv[2])
{
  200650:	a9ad7bfd 	stp	x29, x30, [sp, #-304]!
  200654:	910003fd 	mov	x29, sp
  200658:	f9000bf3 	str	x19, [sp, #16]
  20065c:	b9003fa0 	str	w0, [x29, #60]
  200660:	b9003ba1 	str	w1, [x29, #56]
  200664:	b90037a2 	str	w2, [x29, #52]
  200668:	f90017a3 	str	x3, [x29, #40]
    int listenfd = -1, acceptfd = -1, clientfd = -1;
  20066c:	12800000 	mov	w0, #0xffffffff            	// #-1
  200670:	b9011fa0 	str	w0, [x29, #284]
  200674:	12800000 	mov	w0, #0xffffffff            	// #-1
  200678:	b9011ba0 	str	w0, [x29, #280]
  20067c:	12800000 	mov	w0, #0xffffffff            	// #-1
  200680:	b9012fa0 	str	w0, [x29, #300]
    /* for server, accept, client */
    struct sockaddr_in saddr, aaddr, caddr;
    socklen_t len = sizeof(struct sockaddr_in);
  200684:	52800200 	mov	w0, #0x10                  	// #16
  200688:	b900d7a0 	str	w0, [x29, #212]
    int on = 1;
  20068c:	52800020 	mov	w0, #0x1                   	// #1
  200690:	b900d3a0 	str	w0, [x29, #208]
    int fdopt;
    int rt_port;

    /* for select */
    int maxfdp = 0;
  200694:	b90117bf 	str	wzr, [x29, #276]
    int rst;
    fd_set rfd;
    struct timeval timeout = {0, 1000};
  200698:	f90023bf 	str	xzr, [x29, #64]
  20069c:	d2807d00 	mov	x0, #0x3e8                 	// #1000
  2006a0:	f90027a0 	str	x0, [x29, #72]

    /* server socket */
    if ((listenfd = socket(domain, type, protocol)) < 0)
  2006a4:	b94037a2 	ldr	w2, [x29, #52]
  2006a8:	b9403ba1 	ldr	w1, [x29, #56]
  2006ac:	b9403fa0 	ldr	w0, [x29, #60]
  2006b0:	94001dd8 	bl	207e10 <socket>
  2006b4:	b9011fa0 	str	w0, [x29, #284]
  2006b8:	b9411fa0 	ldr	w0, [x29, #284]
  2006bc:	7100001f 	cmp	w0, #0x0
  2006c0:	540001ca 	b.ge	2006f8 <socketpair+0xa8>  // b.tcont
    {
        printf("Create listenfd socket error: %s(errno: %d)\n", strerror(errno), errno);
  2006c4:	94000b97 	bl	203520 <__errno_location>
  2006c8:	b9400000 	ldr	w0, [x0]
  2006cc:	94000bb5 	bl	2035a0 <strerror>
  2006d0:	aa0003f3 	mov	x19, x0
  2006d4:	94000b93 	bl	203520 <__errno_location>
  2006d8:	b9400001 	ldr	w1, [x0]
  2006dc:	b0000080 	adrp	x0, 211000 <__subtf3+0x7d0>
  2006e0:	91248000 	add	x0, x0, #0x920
  2006e4:	2a0103e2 	mov	w2, w1
  2006e8:	aa1303e1 	mov	x1, x19
  2006ec:	94001ead 	bl	2081a0 <printf>
        return -1;
  2006f0:	12800000 	mov	w0, #0xffffffff            	// #-1
  2006f4:	140000ff 	b	200af0 <socketpair+0x4a0>
    }
    /* non-blocking */
    setnonblocking(listenfd);
  2006f8:	b9411fa0 	ldr	w0, [x29, #284]
  2006fc:	97ffffbc 	bl	2005ec <setnonblocking>

    /* get random port: 5001~65001 */
    srand((unsigned)time(NULL));
  200700:	d2800000 	mov	x0, #0x0                   	// #0
  200704:	94002fab 	bl	20c5b0 <time>
  200708:	94001e16 	bl	207f60 <srand>
    rt_port = rand() % 60000 + 5001;
  20070c:	94001e19 	bl	207f70 <rand>
  200710:	2a0003e1 	mov	w1, w0
  200714:	52964e60 	mov	w0, #0xb273                	// #45683
  200718:	72a8bce0 	movk	w0, #0x45e7, lsl #16
  20071c:	9b207c20 	smull	x0, w1, w0
  200720:	d360fc00 	lsr	x0, x0, #32
  200724:	130e7c02 	asr	w2, w0, #14
  200728:	131f7c20 	asr	w0, w1, #31
  20072c:	4b000040 	sub	w0, w2, w0
  200730:	529d4c02 	mov	w2, #0xea60                	// #60000
  200734:	1b027c00 	mul	w0, w0, w2
  200738:	4b000020 	sub	w0, w1, w0
  20073c:	52827121 	mov	w1, #0x1389                	// #5001
  200740:	0b010000 	add	w0, w0, w1
  200744:	b90113a0 	str	w0, [x29, #272]

    /* bind and listen */
    memset(&saddr, 0, sizeof(saddr));
  200748:	9103e3a0 	add	x0, x29, #0xf8
  20074c:	d2800202 	mov	x2, #0x10                  	// #16
  200750:	52800001 	mov	w1, #0x0                   	// #0
  200754:	94002995 	bl	20ada8 <memset>
    memset(&aaddr, 0, sizeof(aaddr));
  200758:	9103a3a0 	add	x0, x29, #0xe8
  20075c:	d2800202 	mov	x2, #0x10                  	// #16
  200760:	52800001 	mov	w1, #0x0                   	// #0
  200764:	94002991 	bl	20ada8 <memset>
    saddr.sin_family = domain;
  200768:	b9403fa0 	ldr	w0, [x29, #60]
  20076c:	12003c00 	and	w0, w0, #0xffff
  200770:	7901f3a0 	strh	w0, [x29, #248]
    saddr.sin_port = htons(rt_port);
  200774:	b94113a0 	ldr	w0, [x29, #272]
  200778:	12003c00 	and	w0, w0, #0xffff
  20077c:	94001d73 	bl	207d48 <htons>
  200780:	12003c00 	and	w0, w0, #0xffff
  200784:	7901f7a0 	strh	w0, [x29, #250]
    saddr.sin_addr.s_addr = htonl(INADDR_ANY);
  200788:	52800000 	mov	w0, #0x0                   	// #0
  20078c:	94001d6d 	bl	207d40 <htonl>
  200790:	b900ffa0 	str	w0, [x29, #252]

    if (setsockopt(listenfd, SOL_SOCKET, SO_REUSEADDR, (const char*)&on, sizeof(int)) < 0)
  200794:	910343a0 	add	x0, x29, #0xd0
  200798:	52800084 	mov	w4, #0x4                   	// #4
  20079c:	aa0003e3 	mov	x3, x0
  2007a0:	52800042 	mov	w2, #0x2                   	// #2
  2007a4:	52800021 	mov	w1, #0x1                   	// #1
  2007a8:	b9411fa0 	ldr	w0, [x29, #284]
  2007ac:	94001d7f 	bl	207da8 <setsockopt>
  2007b0:	7100001f 	cmp	w0, #0x0
  2007b4:	540000aa 	b.ge	2007c8 <socketpair+0x178>  // b.tcont
    {
        perror("Setsockopt reuseadd failed");
  2007b8:	b0000080 	adrp	x0, 211000 <__subtf3+0x7d0>
  2007bc:	91254000 	add	x0, x0, #0x950
  2007c0:	94001e22 	bl	208048 <perror>
        goto __exit;
  2007c4:	140000c0 	b	200ac4 <socketpair+0x474>
    }

    if (bind(listenfd, (struct sockaddr*)&saddr, sizeof(saddr)) == -1)
  2007c8:	9103e3a0 	add	x0, x29, #0xf8
  2007cc:	52800202 	mov	w2, #0x10                  	// #16
  2007d0:	aa0003e1 	mov	x1, x0
  2007d4:	b9411fa0 	ldr	w0, [x29, #284]
  2007d8:	94001d38 	bl	207cb8 <bind>
  2007dc:	3100041f 	cmn	w0, #0x1
  2007e0:	540001c1 	b.ne	200818 <socketpair+0x1c8>  // b.any
    {
        printf("Bind socket error: %s(errno: %d), fd=%d\n", strerror(errno), errno, listenfd);
  2007e4:	94000b4f 	bl	203520 <__errno_location>
  2007e8:	b9400000 	ldr	w0, [x0]
  2007ec:	94000b6d 	bl	2035a0 <strerror>
  2007f0:	aa0003f3 	mov	x19, x0
  2007f4:	94000b4b 	bl	203520 <__errno_location>
  2007f8:	b9400001 	ldr	w1, [x0]
  2007fc:	b0000080 	adrp	x0, 211000 <__subtf3+0x7d0>
  200800:	9125c000 	add	x0, x0, #0x970
  200804:	b9411fa3 	ldr	w3, [x29, #284]
  200808:	2a0103e2 	mov	w2, w1
  20080c:	aa1303e1 	mov	x1, x19
  200810:	94001e64 	bl	2081a0 <printf>
        goto __exit;
  200814:	140000ac 	b	200ac4 <socketpair+0x474>
    }

    if (listen(listenfd, 10) == -1)
  200818:	52800141 	mov	w1, #0xa                   	// #10
  20081c:	b9411fa0 	ldr	w0, [x29, #284]
  200820:	94001d4c 	bl	207d50 <listen>
  200824:	3100041f 	cmn	w0, #0x1
  200828:	540001a1 	b.ne	20085c <socketpair+0x20c>  // b.any
    {
        printf("Listen socket error: %s(errno: %d)\n", strerror(errno), errno);
  20082c:	94000b3d 	bl	203520 <__errno_location>
  200830:	b9400000 	ldr	w0, [x0]
  200834:	94000b5b 	bl	2035a0 <strerror>
  200838:	aa0003f3 	mov	x19, x0
  20083c:	94000b39 	bl	203520 <__errno_location>
  200840:	b9400001 	ldr	w1, [x0]
  200844:	b0000080 	adrp	x0, 211000 <__subtf3+0x7d0>
  200848:	91268000 	add	x0, x0, #0x9a0
  20084c:	2a0103e2 	mov	w2, w1
  200850:	aa1303e1 	mov	x1, x19
  200854:	94001e53 	bl	2081a0 <printf>
        goto __exit;
  200858:	1400009b 	b	200ac4 <socketpair+0x474>
    }

    /* client socket */
    if ((clientfd = socket(domain, type, protocol)) < 0)
  20085c:	b94037a2 	ldr	w2, [x29, #52]
  200860:	b9403ba1 	ldr	w1, [x29, #56]
  200864:	b9403fa0 	ldr	w0, [x29, #60]
  200868:	94001d6a 	bl	207e10 <socket>
  20086c:	b9012fa0 	str	w0, [x29, #300]
  200870:	b9412fa0 	ldr	w0, [x29, #300]
  200874:	7100001f 	cmp	w0, #0x0
  200878:	540001aa 	b.ge	2008ac <socketpair+0x25c>  // b.tcont
    {
        printf("Create clientfd socket error: %s(errno: %d)\n", strerror(errno), errno);
  20087c:	94000b29 	bl	203520 <__errno_location>
  200880:	b9400000 	ldr	w0, [x0]
  200884:	94000b47 	bl	2035a0 <strerror>
  200888:	aa0003f3 	mov	x19, x0
  20088c:	94000b25 	bl	203520 <__errno_location>
  200890:	b9400001 	ldr	w1, [x0]
  200894:	b0000080 	adrp	x0, 211000 <__subtf3+0x7d0>
  200898:	91272000 	add	x0, x0, #0x9c8
  20089c:	2a0103e2 	mov	w2, w1
  2008a0:	aa1303e1 	mov	x1, x19
  2008a4:	94001e3f 	bl	2081a0 <printf>
        goto __exit;
  2008a8:	14000087 	b	200ac4 <socketpair+0x474>
    }

    /* non-blocking */
    fdopt = setnonblocking(clientfd);
  2008ac:	b9412fa0 	ldr	w0, [x29, #300]
  2008b0:	97ffff4f 	bl	2005ec <setnonblocking>
  2008b4:	b9010fa0 	str	w0, [x29, #268]
    /* client connect */
    memset(&caddr, 0, sizeof(caddr));
  2008b8:	910363a0 	add	x0, x29, #0xd8
  2008bc:	d2800202 	mov	x2, #0x10                  	// #16
  2008c0:	52800001 	mov	w1, #0x0                   	// #0
  2008c4:	94002939 	bl	20ada8 <memset>
    caddr.sin_family = domain;
  2008c8:	b9403fa0 	ldr	w0, [x29, #60]
  2008cc:	12003c00 	and	w0, w0, #0xffff
  2008d0:	7901b3a0 	strh	w0, [x29, #216]
    caddr.sin_port =htons(rt_port);
  2008d4:	b94113a0 	ldr	w0, [x29, #272]
  2008d8:	12003c00 	and	w0, w0, #0xffff
  2008dc:	94001d1b 	bl	207d48 <htons>
  2008e0:	12003c00 	and	w0, w0, #0xffff
  2008e4:	7901b7a0 	strh	w0, [x29, #218]
    caddr.sin_addr.s_addr=htonl(INADDR_ANY);
  2008e8:	52800000 	mov	w0, #0x0                   	// #0
  2008ec:	94001d15 	bl	207d40 <htonl>
  2008f0:	b900dfa0 	str	w0, [x29, #220]
    connect(clientfd, (struct sockaddr*)&caddr, sizeof(caddr));
  2008f4:	910363a0 	add	x0, x29, #0xd8
  2008f8:	52800202 	mov	w2, #0x10                  	// #16
  2008fc:	aa0003e1 	mov	x1, x0
  200900:	b9412fa0 	ldr	w0, [x29, #300]
  200904:	94001d03 	bl	207d10 <connect>

    /* do select */
    FD_ZERO(&rfd);
  200908:	910143a0 	add	x0, x29, #0x50
  20090c:	f90093a0 	str	x0, [x29, #288]
  200910:	52800200 	mov	w0, #0x10                  	// #16
  200914:	b9012ba0 	str	w0, [x29, #296]
  200918:	14000008 	b	200938 <socketpair+0x2e8>
  20091c:	f94093a0 	ldr	x0, [x29, #288]
  200920:	91002001 	add	x1, x0, #0x8
  200924:	f90093a1 	str	x1, [x29, #288]
  200928:	f900001f 	str	xzr, [x0]
  20092c:	b9412ba0 	ldr	w0, [x29, #296]
  200930:	51000400 	sub	w0, w0, #0x1
  200934:	b9012ba0 	str	w0, [x29, #296]
  200938:	b9412ba0 	ldr	w0, [x29, #296]
  20093c:	7100001f 	cmp	w0, #0x0
  200940:	54fffee1 	b.ne	20091c <socketpair+0x2cc>  // b.any
    FD_SET(listenfd, &rfd);
  200944:	b9811fa0 	ldrsw	x0, [x29, #284]
  200948:	d346fc00 	lsr	x0, x0, #6
  20094c:	d37df001 	lsl	x1, x0, #3
  200950:	910143a2 	add	x2, x29, #0x50
  200954:	f8616842 	ldr	x2, [x2, x1]
  200958:	b9411fa1 	ldr	w1, [x29, #284]
  20095c:	12001421 	and	w1, w1, #0x3f
  200960:	d2800023 	mov	x3, #0x1                   	// #1
  200964:	9ac12061 	lsl	x1, x3, x1
  200968:	aa010042 	orr	x2, x2, x1
  20096c:	d37df000 	lsl	x0, x0, #3
  200970:	910143a1 	add	x1, x29, #0x50
  200974:	f8206822 	str	x2, [x1, x0]
    FD_SET(clientfd, &rfd);
  200978:	b9812fa0 	ldrsw	x0, [x29, #300]
  20097c:	d346fc00 	lsr	x0, x0, #6
  200980:	d37df001 	lsl	x1, x0, #3
  200984:	910143a2 	add	x2, x29, #0x50
  200988:	f8616842 	ldr	x2, [x2, x1]
  20098c:	b9412fa1 	ldr	w1, [x29, #300]
  200990:	12001421 	and	w1, w1, #0x3f
  200994:	d2800023 	mov	x3, #0x1                   	// #1
  200998:	9ac12061 	lsl	x1, x3, x1
  20099c:	aa010042 	orr	x2, x2, x1
  2009a0:	d37df000 	lsl	x0, x0, #3
  2009a4:	910143a1 	add	x1, x29, #0x50
  2009a8:	f8206822 	str	x2, [x1, x0]
    maxfdp = listenfd > clientfd ? listenfd+1 : clientfd+1;
  2009ac:	b9411fa1 	ldr	w1, [x29, #284]
  2009b0:	b9412fa0 	ldr	w0, [x29, #300]
  2009b4:	6b00003f 	cmp	w1, w0
  2009b8:	5400008d 	b.le	2009c8 <socketpair+0x378>
  2009bc:	b9411fa0 	ldr	w0, [x29, #284]
  2009c0:	11000400 	add	w0, w0, #0x1
  2009c4:	14000003 	b	2009d0 <socketpair+0x380>
  2009c8:	b9412fa0 	ldr	w0, [x29, #300]
  2009cc:	11000400 	add	w0, w0, #0x1
  2009d0:	b90117a0 	str	w0, [x29, #276]
    rst = select(maxfdp, &rfd, NULL, NULL, &timeout);
  2009d4:	910103a1 	add	x1, x29, #0x40
  2009d8:	910143a0 	add	x0, x29, #0x50
  2009dc:	aa0103e4 	mov	x4, x1
  2009e0:	d2800003 	mov	x3, #0x0                   	// #0
  2009e4:	d2800002 	mov	x2, #0x0                   	// #0
  2009e8:	aa0003e1 	mov	x1, x0
  2009ec:	b94117a0 	ldr	w0, [x29, #276]
  2009f0:	94001d6c 	bl	207fa0 <select>
  2009f4:	b9010ba0 	str	w0, [x29, #264]
    switch(rst)
  2009f8:	b9410ba0 	ldr	w0, [x29, #264]
  2009fc:	3100041f 	cmn	w0, #0x1
  200a00:	54000080 	b.eq	200a10 <socketpair+0x3c0>  // b.none
  200a04:	7100001f 	cmp	w0, #0x0
  200a08:	540000c0 	b.eq	200a20 <socketpair+0x3d0>  // b.none
  200a0c:	14000009 	b	200a30 <socketpair+0x3e0>
    {
    case -1:
        perror("select error");
  200a10:	b0000080 	adrp	x0, 211000 <__subtf3+0x7d0>
  200a14:	9127e000 	add	x0, x0, #0x9f8
  200a18:	94001d8c 	bl	208048 <perror>
        goto __exit;
  200a1c:	1400002a 	b	200ac4 <socketpair+0x474>
        break;
    case 0:
        perror("continue");
  200a20:	b0000080 	adrp	x0, 211000 <__subtf3+0x7d0>
  200a24:	91282000 	add	x0, x0, #0xa08
  200a28:	94001d88 	bl	208048 <perror>
        break;
  200a2c:	14000026 	b	200ac4 <socketpair+0x474>
    default:
        if (FD_ISSET(listenfd, &rfd))
  200a30:	b9811fa0 	ldrsw	x0, [x29, #284]
  200a34:	d346fc00 	lsr	x0, x0, #6
  200a38:	d37df000 	lsl	x0, x0, #3
  200a3c:	910143a1 	add	x1, x29, #0x50
  200a40:	f8606821 	ldr	x1, [x1, x0]
  200a44:	b9411fa0 	ldr	w0, [x29, #284]
  200a48:	12001400 	and	w0, w0, #0x3f
  200a4c:	9ac02420 	lsr	x0, x1, x0
  200a50:	92400000 	and	x0, x0, #0x1
  200a54:	f100001f 	cmp	x0, #0x0
  200a58:	54000340 	b.eq	200ac0 <socketpair+0x470>  // b.none
        {
            if ((acceptfd = accept(listenfd, (struct sockaddr*)&caddr, &len)) > 0)
  200a5c:	910353a1 	add	x1, x29, #0xd4
  200a60:	910363a0 	add	x0, x29, #0xd8
  200a64:	aa0103e2 	mov	x2, x1
  200a68:	aa0003e1 	mov	x1, x0
  200a6c:	b9411fa0 	ldr	w0, [x29, #284]
  200a70:	94001c86 	bl	207c88 <accept>
  200a74:	b9011ba0 	str	w0, [x29, #280]
  200a78:	b9411ba0 	ldr	w0, [x29, #280]
  200a7c:	7100001f 	cmp	w0, #0x0
  200a80:	540001cd 	b.le	200ab8 <socketpair+0x468>
            {
                close(listenfd);
  200a84:	b9411fa0 	ldr	w0, [x29, #284]
  200a88:	9400300e 	bl	20cac0 <close>
                /* set old optional back */
                fcntl(clientfd, F_SETFL, fdopt);
  200a8c:	b9410fa2 	ldr	w2, [x29, #268]
  200a90:	52800081 	mov	w1, #0x4                   	// #4
  200a94:	b9412fa0 	ldr	w0, [x29, #300]
  200a98:	94000ae0 	bl	203618 <fcntl>
                sv[0] = clientfd;
  200a9c:	f94017a0 	ldr	x0, [x29, #40]
  200aa0:	b9412fa1 	ldr	w1, [x29, #300]
  200aa4:	b9000001 	str	w1, [x0]
                sv[1] = acceptfd;
  200aa8:	f94017a0 	ldr	x0, [x29, #40]
  200aac:	91001000 	add	x0, x0, #0x4
  200ab0:	b9411ba1 	ldr	w1, [x29, #280]
  200ab4:	b9000001 	str	w1, [x0]
            }

            return 0;
  200ab8:	52800000 	mov	w0, #0x0                   	// #0
  200abc:	1400000d 	b	200af0 <socketpair+0x4a0>
        }
    }

__exit:
  200ac0:	d503201f 	nop
    if (listenfd >= 0) close(listenfd);
  200ac4:	b9411fa0 	ldr	w0, [x29, #284]
  200ac8:	7100001f 	cmp	w0, #0x0
  200acc:	5400006b 	b.lt	200ad8 <socketpair+0x488>  // b.tstop
  200ad0:	b9411fa0 	ldr	w0, [x29, #284]
  200ad4:	94002ffb 	bl	20cac0 <close>
    if (clientfd >= 0) close(clientfd);
  200ad8:	b9412fa0 	ldr	w0, [x29, #300]
  200adc:	7100001f 	cmp	w0, #0x0
  200ae0:	5400006b 	b.lt	200aec <socketpair+0x49c>  // b.tstop
  200ae4:	b9412fa0 	ldr	w0, [x29, #300]
  200ae8:	94002ff6 	bl	20cac0 <close>

    return -1;
  200aec:	12800000 	mov	w0, #0xffffffff            	// #-1
}
  200af0:	f9400bf3 	ldr	x19, [sp, #16]
  200af4:	a8d37bfd 	ldp	x29, x30, [sp], #304
  200af8:	d65f03c0 	ret

0000000000200afc <rt_mutex_create>:
            return RT_EIO;\
        }\
    } while (0)

rt_mutex_t rt_mutex_create(const char *name, rt_uint8_t flag)
{
  200afc:	a9bd7bfd 	stp	x29, x30, [sp, #-48]!
  200b00:	910003fd 	mov	x29, sp
  200b04:	f9000fa0 	str	x0, [x29, #24]
  200b08:	39005fa1 	strb	w1, [x29, #23]
    RT_USER_IPC_CREATE(RT_Object_Class_Mutex, _NRSYS_mutex_create, name, flag);
  200b0c:	d2800200 	mov	x0, #0x10                  	// #16
  200b10:	9400196e 	bl	2070c8 <malloc>
  200b14:	f90017a0 	str	x0, [x29, #40]
  200b18:	f94017a0 	ldr	x0, [x29, #40]
  200b1c:	f100001f 	cmp	x0, #0x0
  200b20:	54000061 	b.ne	200b2c <rt_mutex_create+0x30>  // b.any
  200b24:	d2800000 	mov	x0, #0x0                   	// #0
  200b28:	14000015 	b	200b7c <rt_mutex_create+0x80>
  200b2c:	39405fa0 	ldrb	w0, [x29, #23]
  200b30:	2a0003e2 	mov	w2, w0
  200b34:	f9400fa1 	ldr	x1, [x29, #24]
  200b38:	528002c0 	mov	w0, #0x16                  	// #22
  200b3c:	94000b58 	bl	20389c <syscall>
  200b40:	aa0003e1 	mov	x1, x0
  200b44:	f94017a0 	ldr	x0, [x29, #40]
  200b48:	f9000401 	str	x1, [x0, #8]
  200b4c:	f94017a0 	ldr	x0, [x29, #40]
  200b50:	f9400400 	ldr	x0, [x0, #8]
  200b54:	f100001f 	cmp	x0, #0x0
  200b58:	540000a0 	b.eq	200b6c <rt_mutex_create+0x70>  // b.none
  200b5c:	f94017a0 	ldr	x0, [x29, #40]
  200b60:	52800061 	mov	w1, #0x3                   	// #3
  200b64:	b9000001 	str	w1, [x0]
  200b68:	14000004 	b	200b78 <rt_mutex_create+0x7c>
  200b6c:	f94017a0 	ldr	x0, [x29, #40]
  200b70:	94001aec 	bl	207720 <free>
  200b74:	f90017bf 	str	xzr, [x29, #40]
  200b78:	f94017a0 	ldr	x0, [x29, #40]
}
  200b7c:	a8c37bfd 	ldp	x29, x30, [sp], #48
  200b80:	d65f03c0 	ret

0000000000200b84 <rt_mutex_init>:

rt_err_t rt_mutex_init(rt_mutex_t mutex, const char *name, rt_uint8_t flag)
{
  200b84:	a9bd7bfd 	stp	x29, x30, [sp, #-48]!
  200b88:	910003fd 	mov	x29, sp
  200b8c:	f90017a0 	str	x0, [x29, #40]
  200b90:	f90013a1 	str	x1, [x29, #32]
  200b94:	39007fa2 	strb	w2, [x29, #31]
    RT_USER_IPC_INIT(mutex, RT_Object_Class_Mutex, _NRSYS_mutex_create, name, flag);
  200b98:	f94017a0 	ldr	x0, [x29, #40]
  200b9c:	f100001f 	cmp	x0, #0x0
  200ba0:	54000061 	b.ne	200bac <rt_mutex_init+0x28>  // b.any
  200ba4:	d2800100 	mov	x0, #0x8                   	// #8
  200ba8:	14000013 	b	200bf4 <rt_mutex_init+0x70>
  200bac:	39407fa0 	ldrb	w0, [x29, #31]
  200bb0:	2a0003e2 	mov	w2, w0
  200bb4:	f94013a1 	ldr	x1, [x29, #32]
  200bb8:	528002c0 	mov	w0, #0x16                  	// #22
  200bbc:	94000b38 	bl	20389c <syscall>
  200bc0:	aa0003e1 	mov	x1, x0
  200bc4:	f94017a0 	ldr	x0, [x29, #40]
  200bc8:	f9000401 	str	x1, [x0, #8]
  200bcc:	f94017a0 	ldr	x0, [x29, #40]
  200bd0:	f9400400 	ldr	x0, [x0, #8]
  200bd4:	f100001f 	cmp	x0, #0x0
  200bd8:	540000c0 	b.eq	200bf0 <rt_mutex_init+0x6c>  // b.none
  200bdc:	f94017a0 	ldr	x0, [x29, #40]
  200be0:	52800061 	mov	w1, #0x3                   	// #3
  200be4:	b9000001 	str	w1, [x0]
  200be8:	d2800000 	mov	x0, #0x0                   	// #0
  200bec:	14000002 	b	200bf4 <rt_mutex_init+0x70>
  200bf0:	d2800020 	mov	x0, #0x1                   	// #1
}
  200bf4:	a8c37bfd 	ldp	x29, x30, [sp], #48
  200bf8:	d65f03c0 	ret

0000000000200bfc <rt_mutex_delete>:

rt_err_t rt_mutex_delete(rt_mutex_t mutex)
{
  200bfc:	a9bd7bfd 	stp	x29, x30, [sp, #-48]!
  200c00:	910003fd 	mov	x29, sp
  200c04:	f9000fa0 	str	x0, [x29, #24]
    RT_USER_IPC_DELETE(mutex, RT_Object_Class_Mutex, _NRSYS_mutex_delete);
  200c08:	f9400fa0 	ldr	x0, [x29, #24]
  200c0c:	f100001f 	cmp	x0, #0x0
  200c10:	540000a0 	b.eq	200c24 <rt_mutex_delete+0x28>  // b.none
  200c14:	f9400fa0 	ldr	x0, [x29, #24]
  200c18:	f9400400 	ldr	x0, [x0, #8]
  200c1c:	f100001f 	cmp	x0, #0x0
  200c20:	54000061 	b.ne	200c2c <rt_mutex_delete+0x30>  // b.any
  200c24:	d2800100 	mov	x0, #0x8                   	// #8
  200c28:	14000015 	b	200c7c <rt_mutex_delete+0x80>
  200c2c:	f9400fa0 	ldr	x0, [x29, #24]
  200c30:	b9400000 	ldr	w0, [x0]
  200c34:	71000c1f 	cmp	w0, #0x3
  200c38:	54000060 	b.eq	200c44 <rt_mutex_delete+0x48>  // b.none
  200c3c:	d2800100 	mov	x0, #0x8                   	// #8
  200c40:	1400000f 	b	200c7c <rt_mutex_delete+0x80>
  200c44:	f9400fa0 	ldr	x0, [x29, #24]
  200c48:	f9400400 	ldr	x0, [x0, #8]
  200c4c:	aa0003e1 	mov	x1, x0
  200c50:	528002e0 	mov	w0, #0x17                  	// #23
  200c54:	94000b12 	bl	20389c <syscall>
  200c58:	f90017a0 	str	x0, [x29, #40]
  200c5c:	f94017a0 	ldr	x0, [x29, #40]
  200c60:	f100001f 	cmp	x0, #0x0
  200c64:	54000060 	b.eq	200c70 <rt_mutex_delete+0x74>  // b.none
  200c68:	f94017a0 	ldr	x0, [x29, #40]
  200c6c:	14000004 	b	200c7c <rt_mutex_delete+0x80>
  200c70:	f9400fa0 	ldr	x0, [x29, #24]
  200c74:	94001aab 	bl	207720 <free>
  200c78:	d2800000 	mov	x0, #0x0                   	// #0
}
  200c7c:	a8c37bfd 	ldp	x29, x30, [sp], #48
  200c80:	d65f03c0 	ret

0000000000200c84 <rt_mutex_detach>:

rt_err_t rt_mutex_detach(rt_mutex_t mutex)
{
  200c84:	a9bd7bfd 	stp	x29, x30, [sp, #-48]!
  200c88:	910003fd 	mov	x29, sp
  200c8c:	f9000fa0 	str	x0, [x29, #24]
    RT_USER_IPC_DETACH(mutex, RT_Object_Class_Mutex, _NRSYS_mutex_delete);
  200c90:	f9400fa0 	ldr	x0, [x29, #24]
  200c94:	f100001f 	cmp	x0, #0x0
  200c98:	540000a0 	b.eq	200cac <rt_mutex_detach+0x28>  // b.none
  200c9c:	f9400fa0 	ldr	x0, [x29, #24]
  200ca0:	f9400400 	ldr	x0, [x0, #8]
  200ca4:	f100001f 	cmp	x0, #0x0
  200ca8:	54000061 	b.ne	200cb4 <rt_mutex_detach+0x30>  // b.any
  200cac:	d2800100 	mov	x0, #0x8                   	// #8
  200cb0:	14000017 	b	200d0c <rt_mutex_detach+0x88>
  200cb4:	f9400fa0 	ldr	x0, [x29, #24]
  200cb8:	b9400000 	ldr	w0, [x0]
  200cbc:	71000c1f 	cmp	w0, #0x3
  200cc0:	54000060 	b.eq	200ccc <rt_mutex_detach+0x48>  // b.none
  200cc4:	d2800100 	mov	x0, #0x8                   	// #8
  200cc8:	14000011 	b	200d0c <rt_mutex_detach+0x88>
  200ccc:	f9400fa0 	ldr	x0, [x29, #24]
  200cd0:	f9400400 	ldr	x0, [x0, #8]
  200cd4:	aa0003e1 	mov	x1, x0
  200cd8:	528002e0 	mov	w0, #0x17                  	// #23
  200cdc:	94000af0 	bl	20389c <syscall>
  200ce0:	f90017a0 	str	x0, [x29, #40]
  200ce4:	f94017a0 	ldr	x0, [x29, #40]
  200ce8:	f100001f 	cmp	x0, #0x0
  200cec:	54000060 	b.eq	200cf8 <rt_mutex_detach+0x74>  // b.none
  200cf0:	f94017a0 	ldr	x0, [x29, #40]
  200cf4:	14000006 	b	200d0c <rt_mutex_detach+0x88>
  200cf8:	f9400fa0 	ldr	x0, [x29, #24]
  200cfc:	b900001f 	str	wzr, [x0]
  200d00:	f9400fa0 	ldr	x0, [x29, #24]
  200d04:	f900041f 	str	xzr, [x0, #8]
  200d08:	d2800000 	mov	x0, #0x0                   	// #0
}
  200d0c:	a8c37bfd 	ldp	x29, x30, [sp], #48
  200d10:	d65f03c0 	ret

0000000000200d14 <rt_mutex_take>:

rt_err_t rt_mutex_take(rt_mutex_t mutex, rt_int32_t time)
{
  200d14:	a9be7bfd 	stp	x29, x30, [sp, #-32]!
  200d18:	910003fd 	mov	x29, sp
  200d1c:	f9000fa0 	str	x0, [x29, #24]
  200d20:	b90017a1 	str	w1, [x29, #20]
    RT_USER_IPC_CHECK(mutex, RT_Object_Class_Mutex);
  200d24:	f9400fa0 	ldr	x0, [x29, #24]
  200d28:	f100001f 	cmp	x0, #0x0
  200d2c:	540000a0 	b.eq	200d40 <rt_mutex_take+0x2c>  // b.none
  200d30:	f9400fa0 	ldr	x0, [x29, #24]
  200d34:	f9400400 	ldr	x0, [x0, #8]
  200d38:	f100001f 	cmp	x0, #0x0
  200d3c:	54000061 	b.ne	200d48 <rt_mutex_take+0x34>  // b.any
  200d40:	d2800100 	mov	x0, #0x8                   	// #8
  200d44:	1400000d 	b	200d78 <rt_mutex_take+0x64>
  200d48:	f9400fa0 	ldr	x0, [x29, #24]
  200d4c:	b9400000 	ldr	w0, [x0]
  200d50:	71000c1f 	cmp	w0, #0x3
  200d54:	54000060 	b.eq	200d60 <rt_mutex_take+0x4c>  // b.none
  200d58:	d2800100 	mov	x0, #0x8                   	// #8
  200d5c:	14000007 	b	200d78 <rt_mutex_take+0x64>
    return syscall(_NRSYS_mutex_take, mutex->data, time);
  200d60:	f9400fa0 	ldr	x0, [x29, #24]
  200d64:	f9400400 	ldr	x0, [x0, #8]
  200d68:	b94017a2 	ldr	w2, [x29, #20]
  200d6c:	aa0003e1 	mov	x1, x0
  200d70:	52800300 	mov	w0, #0x18                  	// #24
  200d74:	94000aca 	bl	20389c <syscall>
}
  200d78:	a8c27bfd 	ldp	x29, x30, [sp], #32
  200d7c:	d65f03c0 	ret

0000000000200d80 <rt_mutex_release>:

rt_err_t rt_mutex_release(rt_mutex_t mutex)
{
  200d80:	a9be7bfd 	stp	x29, x30, [sp, #-32]!
  200d84:	910003fd 	mov	x29, sp
  200d88:	f9000fa0 	str	x0, [x29, #24]
    RT_USER_IPC_CHECK(mutex, RT_Object_Class_Mutex);
  200d8c:	f9400fa0 	ldr	x0, [x29, #24]
  200d90:	f100001f 	cmp	x0, #0x0
  200d94:	540000a0 	b.eq	200da8 <rt_mutex_release+0x28>  // b.none
  200d98:	f9400fa0 	ldr	x0, [x29, #24]
  200d9c:	f9400400 	ldr	x0, [x0, #8]
  200da0:	f100001f 	cmp	x0, #0x0
  200da4:	54000061 	b.ne	200db0 <rt_mutex_release+0x30>  // b.any
  200da8:	d2800100 	mov	x0, #0x8                   	// #8
  200dac:	1400000c 	b	200ddc <rt_mutex_release+0x5c>
  200db0:	f9400fa0 	ldr	x0, [x29, #24]
  200db4:	b9400000 	ldr	w0, [x0]
  200db8:	71000c1f 	cmp	w0, #0x3
  200dbc:	54000060 	b.eq	200dc8 <rt_mutex_release+0x48>  // b.none
  200dc0:	d2800100 	mov	x0, #0x8                   	// #8
  200dc4:	14000006 	b	200ddc <rt_mutex_release+0x5c>
    return syscall(_NRSYS_mutex_release, mutex->data);
  200dc8:	f9400fa0 	ldr	x0, [x29, #24]
  200dcc:	f9400400 	ldr	x0, [x0, #8]
  200dd0:	aa0003e1 	mov	x1, x0
  200dd4:	52800320 	mov	w0, #0x19                  	// #25
  200dd8:	94000ab1 	bl	20389c <syscall>
}
  200ddc:	a8c27bfd 	ldp	x29, x30, [sp], #32
  200de0:	d65f03c0 	ret

0000000000200de4 <rt_sem_create>:

rt_sem_t rt_sem_create(const char *name, rt_uint32_t value, rt_uint8_t flag)
{
  200de4:	a9bd7bfd 	stp	x29, x30, [sp, #-48]!
  200de8:	910003fd 	mov	x29, sp
  200dec:	f9000fa0 	str	x0, [x29, #24]
  200df0:	b90017a1 	str	w1, [x29, #20]
  200df4:	39004fa2 	strb	w2, [x29, #19]
    RT_USER_IPC_CREATE(RT_Object_Class_Semaphore, _NRSYS_sem_create, name, value, flag);
  200df8:	d2800200 	mov	x0, #0x10                  	// #16
  200dfc:	940018b3 	bl	2070c8 <malloc>
  200e00:	f90017a0 	str	x0, [x29, #40]
  200e04:	f94017a0 	ldr	x0, [x29, #40]
  200e08:	f100001f 	cmp	x0, #0x0
  200e0c:	54000061 	b.ne	200e18 <rt_sem_create+0x34>  // b.any
  200e10:	d2800000 	mov	x0, #0x0                   	// #0
  200e14:	14000016 	b	200e6c <rt_sem_create+0x88>
  200e18:	39404fa0 	ldrb	w0, [x29, #19]
  200e1c:	2a0003e3 	mov	w3, w0
  200e20:	b94017a2 	ldr	w2, [x29, #20]
  200e24:	f9400fa1 	ldr	x1, [x29, #24]
  200e28:	52800240 	mov	w0, #0x12                  	// #18
  200e2c:	94000a9c 	bl	20389c <syscall>
  200e30:	aa0003e1 	mov	x1, x0
  200e34:	f94017a0 	ldr	x0, [x29, #40]
  200e38:	f9000401 	str	x1, [x0, #8]
  200e3c:	f94017a0 	ldr	x0, [x29, #40]
  200e40:	f9400400 	ldr	x0, [x0, #8]
  200e44:	f100001f 	cmp	x0, #0x0
  200e48:	540000a0 	b.eq	200e5c <rt_sem_create+0x78>  // b.none
  200e4c:	f94017a0 	ldr	x0, [x29, #40]
  200e50:	52800041 	mov	w1, #0x2                   	// #2
  200e54:	b9000001 	str	w1, [x0]
  200e58:	14000004 	b	200e68 <rt_sem_create+0x84>
  200e5c:	f94017a0 	ldr	x0, [x29, #40]
  200e60:	94001a30 	bl	207720 <free>
  200e64:	f90017bf 	str	xzr, [x29, #40]
  200e68:	f94017a0 	ldr	x0, [x29, #40]
}
  200e6c:	a8c37bfd 	ldp	x29, x30, [sp], #48
  200e70:	d65f03c0 	ret

0000000000200e74 <rt_sem_init>:

rt_err_t rt_sem_init(rt_sem_t sem,
                     const char *name,
                     rt_uint32_t value,
                     rt_uint8_t  flag)
{
  200e74:	a9bd7bfd 	stp	x29, x30, [sp, #-48]!
  200e78:	910003fd 	mov	x29, sp
  200e7c:	f90017a0 	str	x0, [x29, #40]
  200e80:	f90013a1 	str	x1, [x29, #32]
  200e84:	b9001fa2 	str	w2, [x29, #28]
  200e88:	39006fa3 	strb	w3, [x29, #27]
    RT_USER_IPC_INIT(sem, RT_Object_Class_Semaphore, _NRSYS_sem_create, name, value, flag);
  200e8c:	f94017a0 	ldr	x0, [x29, #40]
  200e90:	f100001f 	cmp	x0, #0x0
  200e94:	54000061 	b.ne	200ea0 <rt_sem_init+0x2c>  // b.any
  200e98:	d2800100 	mov	x0, #0x8                   	// #8
  200e9c:	14000014 	b	200eec <rt_sem_init+0x78>
  200ea0:	39406fa0 	ldrb	w0, [x29, #27]
  200ea4:	2a0003e3 	mov	w3, w0
  200ea8:	b9401fa2 	ldr	w2, [x29, #28]
  200eac:	f94013a1 	ldr	x1, [x29, #32]
  200eb0:	52800240 	mov	w0, #0x12                  	// #18
  200eb4:	94000a7a 	bl	20389c <syscall>
  200eb8:	aa0003e1 	mov	x1, x0
  200ebc:	f94017a0 	ldr	x0, [x29, #40]
  200ec0:	f9000401 	str	x1, [x0, #8]
  200ec4:	f94017a0 	ldr	x0, [x29, #40]
  200ec8:	f9400400 	ldr	x0, [x0, #8]
  200ecc:	f100001f 	cmp	x0, #0x0
  200ed0:	540000c0 	b.eq	200ee8 <rt_sem_init+0x74>  // b.none
  200ed4:	f94017a0 	ldr	x0, [x29, #40]
  200ed8:	52800041 	mov	w1, #0x2                   	// #2
  200edc:	b9000001 	str	w1, [x0]
  200ee0:	d2800000 	mov	x0, #0x0                   	// #0
  200ee4:	14000002 	b	200eec <rt_sem_init+0x78>
  200ee8:	d2800020 	mov	x0, #0x1                   	// #1
}
  200eec:	a8c37bfd 	ldp	x29, x30, [sp], #48
  200ef0:	d65f03c0 	ret

0000000000200ef4 <rt_sem_delete>:

rt_err_t rt_sem_delete(rt_sem_t sem)
{
  200ef4:	a9bd7bfd 	stp	x29, x30, [sp, #-48]!
  200ef8:	910003fd 	mov	x29, sp
  200efc:	f9000fa0 	str	x0, [x29, #24]
    RT_USER_IPC_DELETE(sem, RT_Object_Class_Semaphore, _NRSYS_sem_delete);
  200f00:	f9400fa0 	ldr	x0, [x29, #24]
  200f04:	f100001f 	cmp	x0, #0x0
  200f08:	540000a0 	b.eq	200f1c <rt_sem_delete+0x28>  // b.none
  200f0c:	f9400fa0 	ldr	x0, [x29, #24]
  200f10:	f9400400 	ldr	x0, [x0, #8]
  200f14:	f100001f 	cmp	x0, #0x0
  200f18:	54000061 	b.ne	200f24 <rt_sem_delete+0x30>  // b.any
  200f1c:	d2800100 	mov	x0, #0x8                   	// #8
  200f20:	14000015 	b	200f74 <rt_sem_delete+0x80>
  200f24:	f9400fa0 	ldr	x0, [x29, #24]
  200f28:	b9400000 	ldr	w0, [x0]
  200f2c:	7100081f 	cmp	w0, #0x2
  200f30:	54000060 	b.eq	200f3c <rt_sem_delete+0x48>  // b.none
  200f34:	d2800100 	mov	x0, #0x8                   	// #8
  200f38:	1400000f 	b	200f74 <rt_sem_delete+0x80>
  200f3c:	f9400fa0 	ldr	x0, [x29, #24]
  200f40:	f9400400 	ldr	x0, [x0, #8]
  200f44:	aa0003e1 	mov	x1, x0
  200f48:	52800260 	mov	w0, #0x13                  	// #19
  200f4c:	94000a54 	bl	20389c <syscall>
  200f50:	f90017a0 	str	x0, [x29, #40]
  200f54:	f94017a0 	ldr	x0, [x29, #40]
  200f58:	f100001f 	cmp	x0, #0x0
  200f5c:	54000060 	b.eq	200f68 <rt_sem_delete+0x74>  // b.none
  200f60:	f94017a0 	ldr	x0, [x29, #40]
  200f64:	14000004 	b	200f74 <rt_sem_delete+0x80>
  200f68:	f9400fa0 	ldr	x0, [x29, #24]
  200f6c:	940019ed 	bl	207720 <free>
  200f70:	d2800000 	mov	x0, #0x0                   	// #0
}
  200f74:	a8c37bfd 	ldp	x29, x30, [sp], #48
  200f78:	d65f03c0 	ret

0000000000200f7c <rt_sem_detach>:

rt_err_t rt_sem_detach(rt_sem_t sem)
{
  200f7c:	a9bd7bfd 	stp	x29, x30, [sp, #-48]!
  200f80:	910003fd 	mov	x29, sp
  200f84:	f9000fa0 	str	x0, [x29, #24]
    RT_USER_IPC_DETACH(sem, RT_Object_Class_Semaphore, _NRSYS_sem_delete);
  200f88:	f9400fa0 	ldr	x0, [x29, #24]
  200f8c:	f100001f 	cmp	x0, #0x0
  200f90:	540000a0 	b.eq	200fa4 <rt_sem_detach+0x28>  // b.none
  200f94:	f9400fa0 	ldr	x0, [x29, #24]
  200f98:	f9400400 	ldr	x0, [x0, #8]
  200f9c:	f100001f 	cmp	x0, #0x0
  200fa0:	54000061 	b.ne	200fac <rt_sem_detach+0x30>  // b.any
  200fa4:	d2800100 	mov	x0, #0x8                   	// #8
  200fa8:	14000017 	b	201004 <rt_sem_detach+0x88>
  200fac:	f9400fa0 	ldr	x0, [x29, #24]
  200fb0:	b9400000 	ldr	w0, [x0]
  200fb4:	7100081f 	cmp	w0, #0x2
  200fb8:	54000060 	b.eq	200fc4 <rt_sem_detach+0x48>  // b.none
  200fbc:	d2800100 	mov	x0, #0x8                   	// #8
  200fc0:	14000011 	b	201004 <rt_sem_detach+0x88>
  200fc4:	f9400fa0 	ldr	x0, [x29, #24]
  200fc8:	f9400400 	ldr	x0, [x0, #8]
  200fcc:	aa0003e1 	mov	x1, x0
  200fd0:	52800260 	mov	w0, #0x13                  	// #19
  200fd4:	94000a32 	bl	20389c <syscall>
  200fd8:	f90017a0 	str	x0, [x29, #40]
  200fdc:	f94017a0 	ldr	x0, [x29, #40]
  200fe0:	f100001f 	cmp	x0, #0x0
  200fe4:	54000060 	b.eq	200ff0 <rt_sem_detach+0x74>  // b.none
  200fe8:	f94017a0 	ldr	x0, [x29, #40]
  200fec:	14000006 	b	201004 <rt_sem_detach+0x88>
  200ff0:	f9400fa0 	ldr	x0, [x29, #24]
  200ff4:	b900001f 	str	wzr, [x0]
  200ff8:	f9400fa0 	ldr	x0, [x29, #24]
  200ffc:	f900041f 	str	xzr, [x0, #8]
  201000:	d2800000 	mov	x0, #0x0                   	// #0
}
  201004:	a8c37bfd 	ldp	x29, x30, [sp], #48
  201008:	d65f03c0 	ret

000000000020100c <rt_sem_release>:

rt_err_t rt_sem_release(rt_sem_t sem)
{
  20100c:	a9be7bfd 	stp	x29, x30, [sp, #-32]!
  201010:	910003fd 	mov	x29, sp
  201014:	f9000fa0 	str	x0, [x29, #24]
    RT_USER_IPC_CHECK(sem, RT_Object_Class_Semaphore);
  201018:	f9400fa0 	ldr	x0, [x29, #24]
  20101c:	f100001f 	cmp	x0, #0x0
  201020:	540000a0 	b.eq	201034 <rt_sem_release+0x28>  // b.none
  201024:	f9400fa0 	ldr	x0, [x29, #24]
  201028:	f9400400 	ldr	x0, [x0, #8]
  20102c:	f100001f 	cmp	x0, #0x0
  201030:	54000061 	b.ne	20103c <rt_sem_release+0x30>  // b.any
  201034:	d2800100 	mov	x0, #0x8                   	// #8
  201038:	1400000c 	b	201068 <rt_sem_release+0x5c>
  20103c:	f9400fa0 	ldr	x0, [x29, #24]
  201040:	b9400000 	ldr	w0, [x0]
  201044:	7100081f 	cmp	w0, #0x2
  201048:	54000060 	b.eq	201054 <rt_sem_release+0x48>  // b.none
  20104c:	d2800100 	mov	x0, #0x8                   	// #8
  201050:	14000006 	b	201068 <rt_sem_release+0x5c>
    return syscall(_NRSYS_sem_release, sem->data);
  201054:	f9400fa0 	ldr	x0, [x29, #24]
  201058:	f9400400 	ldr	x0, [x0, #8]
  20105c:	aa0003e1 	mov	x1, x0
  201060:	528002a0 	mov	w0, #0x15                  	// #21
  201064:	94000a0e 	bl	20389c <syscall>
}
  201068:	a8c27bfd 	ldp	x29, x30, [sp], #32
  20106c:	d65f03c0 	ret

0000000000201070 <rt_sem_take>:

rt_err_t rt_sem_take(rt_sem_t sem, rt_int32_t time)
{
  201070:	a9be7bfd 	stp	x29, x30, [sp, #-32]!
  201074:	910003fd 	mov	x29, sp
  201078:	f9000fa0 	str	x0, [x29, #24]
  20107c:	b90017a1 	str	w1, [x29, #20]
    RT_USER_IPC_CHECK(sem, RT_Object_Class_Semaphore);
  201080:	f9400fa0 	ldr	x0, [x29, #24]
  201084:	f100001f 	cmp	x0, #0x0
  201088:	540000a0 	b.eq	20109c <rt_sem_take+0x2c>  // b.none
  20108c:	f9400fa0 	ldr	x0, [x29, #24]
  201090:	f9400400 	ldr	x0, [x0, #8]
  201094:	f100001f 	cmp	x0, #0x0
  201098:	54000061 	b.ne	2010a4 <rt_sem_take+0x34>  // b.any
  20109c:	d2800100 	mov	x0, #0x8                   	// #8
  2010a0:	1400000d 	b	2010d4 <rt_sem_take+0x64>
  2010a4:	f9400fa0 	ldr	x0, [x29, #24]
  2010a8:	b9400000 	ldr	w0, [x0]
  2010ac:	7100081f 	cmp	w0, #0x2
  2010b0:	54000060 	b.eq	2010bc <rt_sem_take+0x4c>  // b.none
  2010b4:	d2800100 	mov	x0, #0x8                   	// #8
  2010b8:	14000007 	b	2010d4 <rt_sem_take+0x64>
    return syscall(_NRSYS_sem_take, sem->data, time);
  2010bc:	f9400fa0 	ldr	x0, [x29, #24]
  2010c0:	f9400400 	ldr	x0, [x0, #8]
  2010c4:	b94017a2 	ldr	w2, [x29, #20]
  2010c8:	aa0003e1 	mov	x1, x0
  2010cc:	52800280 	mov	w0, #0x14                  	// #20
  2010d0:	940009f3 	bl	20389c <syscall>
}
  2010d4:	a8c27bfd 	ldp	x29, x30, [sp], #32
  2010d8:	d65f03c0 	ret

00000000002010dc <rt_mb_create>:

rt_mailbox_t rt_mb_create(const char *name, rt_size_t size, rt_uint8_t flag)
{
  2010dc:	a9bc7bfd 	stp	x29, x30, [sp, #-64]!
  2010e0:	910003fd 	mov	x29, sp
  2010e4:	f90017a0 	str	x0, [x29, #40]
  2010e8:	f90013a1 	str	x1, [x29, #32]
  2010ec:	39007fa2 	strb	w2, [x29, #31]
    RT_USER_IPC_CREATE(RT_Object_Class_MailBox, _NRSYS_mb_create, name, size, flag);
  2010f0:	d2800200 	mov	x0, #0x10                  	// #16
  2010f4:	940017f5 	bl	2070c8 <malloc>
  2010f8:	f9001fa0 	str	x0, [x29, #56]
  2010fc:	f9401fa0 	ldr	x0, [x29, #56]
  201100:	f100001f 	cmp	x0, #0x0
  201104:	54000061 	b.ne	201110 <rt_mb_create+0x34>  // b.any
  201108:	d2800000 	mov	x0, #0x0                   	// #0
  20110c:	14000016 	b	201164 <rt_mb_create+0x88>
  201110:	39407fa0 	ldrb	w0, [x29, #31]
  201114:	2a0003e3 	mov	w3, w0
  201118:	f94013a2 	ldr	x2, [x29, #32]
  20111c:	f94017a1 	ldr	x1, [x29, #40]
  201120:	528003c0 	mov	w0, #0x1e                  	// #30
  201124:	940009de 	bl	20389c <syscall>
  201128:	aa0003e1 	mov	x1, x0
  20112c:	f9401fa0 	ldr	x0, [x29, #56]
  201130:	f9000401 	str	x1, [x0, #8]
  201134:	f9401fa0 	ldr	x0, [x29, #56]
  201138:	f9400400 	ldr	x0, [x0, #8]
  20113c:	f100001f 	cmp	x0, #0x0
  201140:	540000a0 	b.eq	201154 <rt_mb_create+0x78>  // b.none
  201144:	f9401fa0 	ldr	x0, [x29, #56]
  201148:	528000a1 	mov	w1, #0x5                   	// #5
  20114c:	b9000001 	str	w1, [x0]
  201150:	14000004 	b	201160 <rt_mb_create+0x84>
  201154:	f9401fa0 	ldr	x0, [x29, #56]
  201158:	94001972 	bl	207720 <free>
  20115c:	f9001fbf 	str	xzr, [x29, #56]
  201160:	f9401fa0 	ldr	x0, [x29, #56]
}
  201164:	a8c47bfd 	ldp	x29, x30, [sp], #64
  201168:	d65f03c0 	ret

000000000020116c <rt_mb_init>:
rt_err_t rt_mb_init(rt_mailbox_t mb,
                    const char  *name,
                    void        *msgpool,
                    rt_size_t    size,
                    rt_uint8_t   flag)
{
  20116c:	a9bc7bfd 	stp	x29, x30, [sp, #-64]!
  201170:	910003fd 	mov	x29, sp
  201174:	f9001fa0 	str	x0, [x29, #56]
  201178:	f9001ba1 	str	x1, [x29, #48]
  20117c:	f90017a2 	str	x2, [x29, #40]
  201180:	f90013a3 	str	x3, [x29, #32]
  201184:	39007fa4 	strb	w4, [x29, #31]
    RT_USER_IPC_INIT(mb, RT_Object_Class_MailBox, _NRSYS_mb_create, name, size, flag);
  201188:	f9401fa0 	ldr	x0, [x29, #56]
  20118c:	f100001f 	cmp	x0, #0x0
  201190:	54000061 	b.ne	20119c <rt_mb_init+0x30>  // b.any
  201194:	d2800100 	mov	x0, #0x8                   	// #8
  201198:	14000014 	b	2011e8 <rt_mb_init+0x7c>
  20119c:	39407fa0 	ldrb	w0, [x29, #31]
  2011a0:	2a0003e3 	mov	w3, w0
  2011a4:	f94013a2 	ldr	x2, [x29, #32]
  2011a8:	f9401ba1 	ldr	x1, [x29, #48]
  2011ac:	528003c0 	mov	w0, #0x1e                  	// #30
  2011b0:	940009bb 	bl	20389c <syscall>
  2011b4:	aa0003e1 	mov	x1, x0
  2011b8:	f9401fa0 	ldr	x0, [x29, #56]
  2011bc:	f9000401 	str	x1, [x0, #8]
  2011c0:	f9401fa0 	ldr	x0, [x29, #56]
  2011c4:	f9400400 	ldr	x0, [x0, #8]
  2011c8:	f100001f 	cmp	x0, #0x0
  2011cc:	540000c0 	b.eq	2011e4 <rt_mb_init+0x78>  // b.none
  2011d0:	f9401fa0 	ldr	x0, [x29, #56]
  2011d4:	528000a1 	mov	w1, #0x5                   	// #5
  2011d8:	b9000001 	str	w1, [x0]
  2011dc:	d2800000 	mov	x0, #0x0                   	// #0
  2011e0:	14000002 	b	2011e8 <rt_mb_init+0x7c>
  2011e4:	d2800020 	mov	x0, #0x1                   	// #1
}
  2011e8:	a8c47bfd 	ldp	x29, x30, [sp], #64
  2011ec:	d65f03c0 	ret

00000000002011f0 <rt_mb_delete>:


rt_err_t rt_mb_delete(rt_mailbox_t mb)
{
  2011f0:	a9bd7bfd 	stp	x29, x30, [sp, #-48]!
  2011f4:	910003fd 	mov	x29, sp
  2011f8:	f9000fa0 	str	x0, [x29, #24]
    RT_USER_IPC_DELETE(mb, RT_Object_Class_MailBox, _NRSYS_mb_delete);
  2011fc:	f9400fa0 	ldr	x0, [x29, #24]
  201200:	f100001f 	cmp	x0, #0x0
  201204:	540000a0 	b.eq	201218 <rt_mb_delete+0x28>  // b.none
  201208:	f9400fa0 	ldr	x0, [x29, #24]
  20120c:	f9400400 	ldr	x0, [x0, #8]
  201210:	f100001f 	cmp	x0, #0x0
  201214:	54000061 	b.ne	201220 <rt_mb_delete+0x30>  // b.any
  201218:	d2800100 	mov	x0, #0x8                   	// #8
  20121c:	14000015 	b	201270 <rt_mb_delete+0x80>
  201220:	f9400fa0 	ldr	x0, [x29, #24]
  201224:	b9400000 	ldr	w0, [x0]
  201228:	7100141f 	cmp	w0, #0x5
  20122c:	54000060 	b.eq	201238 <rt_mb_delete+0x48>  // b.none
  201230:	d2800100 	mov	x0, #0x8                   	// #8
  201234:	1400000f 	b	201270 <rt_mb_delete+0x80>
  201238:	f9400fa0 	ldr	x0, [x29, #24]
  20123c:	f9400400 	ldr	x0, [x0, #8]
  201240:	aa0003e1 	mov	x1, x0
  201244:	528003e0 	mov	w0, #0x1f                  	// #31
  201248:	94000995 	bl	20389c <syscall>
  20124c:	f90017a0 	str	x0, [x29, #40]
  201250:	f94017a0 	ldr	x0, [x29, #40]
  201254:	f100001f 	cmp	x0, #0x0
  201258:	54000060 	b.eq	201264 <rt_mb_delete+0x74>  // b.none
  20125c:	f94017a0 	ldr	x0, [x29, #40]
  201260:	14000004 	b	201270 <rt_mb_delete+0x80>
  201264:	f9400fa0 	ldr	x0, [x29, #24]
  201268:	9400192e 	bl	207720 <free>
  20126c:	d2800000 	mov	x0, #0x0                   	// #0
}
  201270:	a8c37bfd 	ldp	x29, x30, [sp], #48
  201274:	d65f03c0 	ret

0000000000201278 <rt_mb_detach>:

rt_err_t rt_mb_detach(rt_mailbox_t mb)
{
  201278:	a9bd7bfd 	stp	x29, x30, [sp, #-48]!
  20127c:	910003fd 	mov	x29, sp
  201280:	f9000fa0 	str	x0, [x29, #24]
    RT_USER_IPC_DETACH(mb, RT_Object_Class_MailBox, _NRSYS_mb_delete);
  201284:	f9400fa0 	ldr	x0, [x29, #24]
  201288:	f100001f 	cmp	x0, #0x0
  20128c:	540000a0 	b.eq	2012a0 <rt_mb_detach+0x28>  // b.none
  201290:	f9400fa0 	ldr	x0, [x29, #24]
  201294:	f9400400 	ldr	x0, [x0, #8]
  201298:	f100001f 	cmp	x0, #0x0
  20129c:	54000061 	b.ne	2012a8 <rt_mb_detach+0x30>  // b.any
  2012a0:	d2800100 	mov	x0, #0x8                   	// #8
  2012a4:	14000017 	b	201300 <rt_mb_detach+0x88>
  2012a8:	f9400fa0 	ldr	x0, [x29, #24]
  2012ac:	b9400000 	ldr	w0, [x0]
  2012b0:	7100141f 	cmp	w0, #0x5
  2012b4:	54000060 	b.eq	2012c0 <rt_mb_detach+0x48>  // b.none
  2012b8:	d2800100 	mov	x0, #0x8                   	// #8
  2012bc:	14000011 	b	201300 <rt_mb_detach+0x88>
  2012c0:	f9400fa0 	ldr	x0, [x29, #24]
  2012c4:	f9400400 	ldr	x0, [x0, #8]
  2012c8:	aa0003e1 	mov	x1, x0
  2012cc:	528003e0 	mov	w0, #0x1f                  	// #31
  2012d0:	94000973 	bl	20389c <syscall>
  2012d4:	f90017a0 	str	x0, [x29, #40]
  2012d8:	f94017a0 	ldr	x0, [x29, #40]
  2012dc:	f100001f 	cmp	x0, #0x0
  2012e0:	54000060 	b.eq	2012ec <rt_mb_detach+0x74>  // b.none
  2012e4:	f94017a0 	ldr	x0, [x29, #40]
  2012e8:	14000006 	b	201300 <rt_mb_detach+0x88>
  2012ec:	f9400fa0 	ldr	x0, [x29, #24]
  2012f0:	b900001f 	str	wzr, [x0]
  2012f4:	f9400fa0 	ldr	x0, [x29, #24]
  2012f8:	f900041f 	str	xzr, [x0, #8]
  2012fc:	d2800000 	mov	x0, #0x0                   	// #0
}
  201300:	a8c37bfd 	ldp	x29, x30, [sp], #48
  201304:	d65f03c0 	ret

0000000000201308 <rt_mb_send_wait>:

rt_err_t rt_mb_send_wait(rt_mailbox_t mb,
        rt_ubase_t   value,
        rt_int32_t   timeout)
{
  201308:	a9bd7bfd 	stp	x29, x30, [sp, #-48]!
  20130c:	910003fd 	mov	x29, sp
  201310:	f90017a0 	str	x0, [x29, #40]
  201314:	f90013a1 	str	x1, [x29, #32]
  201318:	b9001fa2 	str	w2, [x29, #28]
    RT_USER_IPC_CHECK(mb, RT_Object_Class_MailBox);
  20131c:	f94017a0 	ldr	x0, [x29, #40]
  201320:	f100001f 	cmp	x0, #0x0
  201324:	540000a0 	b.eq	201338 <rt_mb_send_wait+0x30>  // b.none
  201328:	f94017a0 	ldr	x0, [x29, #40]
  20132c:	f9400400 	ldr	x0, [x0, #8]
  201330:	f100001f 	cmp	x0, #0x0
  201334:	54000061 	b.ne	201340 <rt_mb_send_wait+0x38>  // b.any
  201338:	d2800100 	mov	x0, #0x8                   	// #8
  20133c:	1400000e 	b	201374 <rt_mb_send_wait+0x6c>
  201340:	f94017a0 	ldr	x0, [x29, #40]
  201344:	b9400000 	ldr	w0, [x0]
  201348:	7100141f 	cmp	w0, #0x5
  20134c:	54000060 	b.eq	201358 <rt_mb_send_wait+0x50>  // b.none
  201350:	d2800100 	mov	x0, #0x8                   	// #8
  201354:	14000008 	b	201374 <rt_mb_send_wait+0x6c>
    return syscall(_NRSYS_mb_send_wait, mb->data, value, timeout);
  201358:	f94017a0 	ldr	x0, [x29, #40]
  20135c:	f9400400 	ldr	x0, [x0, #8]
  201360:	b9401fa3 	ldr	w3, [x29, #28]
  201364:	f94013a2 	ldr	x2, [x29, #32]
  201368:	aa0003e1 	mov	x1, x0
  20136c:	52800420 	mov	w0, #0x21                  	// #33
  201370:	9400094b 	bl	20389c <syscall>
}
  201374:	a8c37bfd 	ldp	x29, x30, [sp], #48
  201378:	d65f03c0 	ret

000000000020137c <rt_mb_send>:

rt_err_t rt_mb_send(rt_mailbox_t mb, rt_ubase_t value)
{
  20137c:	a9be7bfd 	stp	x29, x30, [sp, #-32]!
  201380:	910003fd 	mov	x29, sp
  201384:	f9000fa0 	str	x0, [x29, #24]
  201388:	f9000ba1 	str	x1, [x29, #16]
    RT_USER_IPC_CHECK(mb, RT_Object_Class_MailBox);
  20138c:	f9400fa0 	ldr	x0, [x29, #24]
  201390:	f100001f 	cmp	x0, #0x0
  201394:	540000a0 	b.eq	2013a8 <rt_mb_send+0x2c>  // b.none
  201398:	f9400fa0 	ldr	x0, [x29, #24]
  20139c:	f9400400 	ldr	x0, [x0, #8]
  2013a0:	f100001f 	cmp	x0, #0x0
  2013a4:	54000061 	b.ne	2013b0 <rt_mb_send+0x34>  // b.any
  2013a8:	d2800100 	mov	x0, #0x8                   	// #8
  2013ac:	1400000d 	b	2013e0 <rt_mb_send+0x64>
  2013b0:	f9400fa0 	ldr	x0, [x29, #24]
  2013b4:	b9400000 	ldr	w0, [x0]
  2013b8:	7100141f 	cmp	w0, #0x5
  2013bc:	54000060 	b.eq	2013c8 <rt_mb_send+0x4c>  // b.none
  2013c0:	d2800100 	mov	x0, #0x8                   	// #8
  2013c4:	14000007 	b	2013e0 <rt_mb_send+0x64>
    return syscall(_NRSYS_mb_send, mb->data, value);
  2013c8:	f9400fa0 	ldr	x0, [x29, #24]
  2013cc:	f9400400 	ldr	x0, [x0, #8]
  2013d0:	f9400ba2 	ldr	x2, [x29, #16]
  2013d4:	aa0003e1 	mov	x1, x0
  2013d8:	52800400 	mov	w0, #0x20                  	// #32
  2013dc:	94000930 	bl	20389c <syscall>
}
  2013e0:	a8c27bfd 	ldp	x29, x30, [sp], #32
  2013e4:	d65f03c0 	ret

00000000002013e8 <rt_mb_recv>:

rt_err_t rt_mb_recv(rt_mailbox_t mb, rt_ubase_t *value, rt_int32_t timeout)
{
  2013e8:	a9bd7bfd 	stp	x29, x30, [sp, #-48]!
  2013ec:	910003fd 	mov	x29, sp
  2013f0:	f90017a0 	str	x0, [x29, #40]
  2013f4:	f90013a1 	str	x1, [x29, #32]
  2013f8:	b9001fa2 	str	w2, [x29, #28]
    RT_USER_IPC_CHECK(mb, RT_Object_Class_MailBox);
  2013fc:	f94017a0 	ldr	x0, [x29, #40]
  201400:	f100001f 	cmp	x0, #0x0
  201404:	540000a0 	b.eq	201418 <rt_mb_recv+0x30>  // b.none
  201408:	f94017a0 	ldr	x0, [x29, #40]
  20140c:	f9400400 	ldr	x0, [x0, #8]
  201410:	f100001f 	cmp	x0, #0x0
  201414:	54000061 	b.ne	201420 <rt_mb_recv+0x38>  // b.any
  201418:	d2800100 	mov	x0, #0x8                   	// #8
  20141c:	1400000e 	b	201454 <rt_mb_recv+0x6c>
  201420:	f94017a0 	ldr	x0, [x29, #40]
  201424:	b9400000 	ldr	w0, [x0]
  201428:	7100141f 	cmp	w0, #0x5
  20142c:	54000060 	b.eq	201438 <rt_mb_recv+0x50>  // b.none
  201430:	d2800100 	mov	x0, #0x8                   	// #8
  201434:	14000008 	b	201454 <rt_mb_recv+0x6c>
    return syscall(_NRSYS_mb_recv, mb->data, value, timeout);
  201438:	f94017a0 	ldr	x0, [x29, #40]
  20143c:	f9400400 	ldr	x0, [x0, #8]
  201440:	b9401fa3 	ldr	w3, [x29, #28]
  201444:	f94013a2 	ldr	x2, [x29, #32]
  201448:	aa0003e1 	mov	x1, x0
  20144c:	52800440 	mov	w0, #0x22                  	// #34
  201450:	94000913 	bl	20389c <syscall>
}
  201454:	a8c37bfd 	ldp	x29, x30, [sp], #48
  201458:	d65f03c0 	ret

000000000020145c <rt_mq_create>:

rt_mq_t rt_mq_create(const char *name,
                     rt_size_t   msg_size,
                     rt_size_t   max_msgs,
                     rt_uint8_t  flag)
{
  20145c:	a9bc7bfd 	stp	x29, x30, [sp, #-64]!
  201460:	910003fd 	mov	x29, sp
  201464:	f90017a0 	str	x0, [x29, #40]
  201468:	f90013a1 	str	x1, [x29, #32]
  20146c:	f9000fa2 	str	x2, [x29, #24]
  201470:	39005fa3 	strb	w3, [x29, #23]
    RT_USER_IPC_CREATE(RT_Object_Class_MessageQueue, _NRSYS_mq_create, name, msg_size, max_msgs, flag);
  201474:	d2800200 	mov	x0, #0x10                  	// #16
  201478:	94001714 	bl	2070c8 <malloc>
  20147c:	f9001fa0 	str	x0, [x29, #56]
  201480:	f9401fa0 	ldr	x0, [x29, #56]
  201484:	f100001f 	cmp	x0, #0x0
  201488:	54000061 	b.ne	201494 <rt_mq_create+0x38>  // b.any
  20148c:	d2800000 	mov	x0, #0x0                   	// #0
  201490:	14000017 	b	2014ec <rt_mq_create+0x90>
  201494:	39405fa0 	ldrb	w0, [x29, #23]
  201498:	2a0003e4 	mov	w4, w0
  20149c:	f9400fa3 	ldr	x3, [x29, #24]
  2014a0:	f94013a2 	ldr	x2, [x29, #32]
  2014a4:	f94017a1 	ldr	x1, [x29, #40]
  2014a8:	52800460 	mov	w0, #0x23                  	// #35
  2014ac:	940008fc 	bl	20389c <syscall>
  2014b0:	aa0003e1 	mov	x1, x0
  2014b4:	f9401fa0 	ldr	x0, [x29, #56]
  2014b8:	f9000401 	str	x1, [x0, #8]
  2014bc:	f9401fa0 	ldr	x0, [x29, #56]
  2014c0:	f9400400 	ldr	x0, [x0, #8]
  2014c4:	f100001f 	cmp	x0, #0x0
  2014c8:	540000a0 	b.eq	2014dc <rt_mq_create+0x80>  // b.none
  2014cc:	f9401fa0 	ldr	x0, [x29, #56]
  2014d0:	528000c1 	mov	w1, #0x6                   	// #6
  2014d4:	b9000001 	str	w1, [x0]
  2014d8:	14000004 	b	2014e8 <rt_mq_create+0x8c>
  2014dc:	f9401fa0 	ldr	x0, [x29, #56]
  2014e0:	94001890 	bl	207720 <free>
  2014e4:	f9001fbf 	str	xzr, [x29, #56]
  2014e8:	f9401fa0 	ldr	x0, [x29, #56]
}
  2014ec:	a8c47bfd 	ldp	x29, x30, [sp], #64
  2014f0:	d65f03c0 	ret

00000000002014f4 <rt_mq_init>:
                    const char *name,
                    void       *msgpool,
                    rt_size_t   msg_size,
                    rt_size_t   pool_size,
                    rt_uint8_t  flag)
{
  2014f4:	a9bc7bfd 	stp	x29, x30, [sp, #-64]!
  2014f8:	910003fd 	mov	x29, sp
  2014fc:	f9001fa0 	str	x0, [x29, #56]
  201500:	f9001ba1 	str	x1, [x29, #48]
  201504:	f90017a2 	str	x2, [x29, #40]
  201508:	f90013a3 	str	x3, [x29, #32]
  20150c:	f9000fa4 	str	x4, [x29, #24]
  201510:	39005fa5 	strb	w5, [x29, #23]
    RT_USER_IPC_INIT(mq, RT_Object_Class_MessageQueue, _NRSYS_mq_create, name, msg_size, pool_size/msg_size, flag);
  201514:	f9401fa0 	ldr	x0, [x29, #56]
  201518:	f100001f 	cmp	x0, #0x0
  20151c:	54000061 	b.ne	201528 <rt_mq_init+0x34>  // b.any
  201520:	d2800100 	mov	x0, #0x8                   	// #8
  201524:	14000018 	b	201584 <rt_mq_init+0x90>
  201528:	f9400fa1 	ldr	x1, [x29, #24]
  20152c:	f94013a0 	ldr	x0, [x29, #32]
  201530:	9ac00820 	udiv	x0, x1, x0
  201534:	39405fa1 	ldrb	w1, [x29, #23]
  201538:	2a0103e4 	mov	w4, w1
  20153c:	aa0003e3 	mov	x3, x0
  201540:	f94013a2 	ldr	x2, [x29, #32]
  201544:	f9401ba1 	ldr	x1, [x29, #48]
  201548:	52800460 	mov	w0, #0x23                  	// #35
  20154c:	940008d4 	bl	20389c <syscall>
  201550:	aa0003e1 	mov	x1, x0
  201554:	f9401fa0 	ldr	x0, [x29, #56]
  201558:	f9000401 	str	x1, [x0, #8]
  20155c:	f9401fa0 	ldr	x0, [x29, #56]
  201560:	f9400400 	ldr	x0, [x0, #8]
  201564:	f100001f 	cmp	x0, #0x0
  201568:	540000c0 	b.eq	201580 <rt_mq_init+0x8c>  // b.none
  20156c:	f9401fa0 	ldr	x0, [x29, #56]
  201570:	528000c1 	mov	w1, #0x6                   	// #6
  201574:	b9000001 	str	w1, [x0]
  201578:	d2800000 	mov	x0, #0x0                   	// #0
  20157c:	14000002 	b	201584 <rt_mq_init+0x90>
  201580:	d2800020 	mov	x0, #0x1                   	// #1
}
  201584:	a8c47bfd 	ldp	x29, x30, [sp], #64
  201588:	d65f03c0 	ret

000000000020158c <rt_mq_delete>:

rt_err_t rt_mq_delete(rt_mq_t mq)
{
  20158c:	a9bd7bfd 	stp	x29, x30, [sp, #-48]!
  201590:	910003fd 	mov	x29, sp
  201594:	f9000fa0 	str	x0, [x29, #24]
    RT_USER_IPC_DELETE(mq, RT_Object_Class_MessageQueue, _NRSYS_mq_delete);
  201598:	f9400fa0 	ldr	x0, [x29, #24]
  20159c:	f100001f 	cmp	x0, #0x0
  2015a0:	540000a0 	b.eq	2015b4 <rt_mq_delete+0x28>  // b.none
  2015a4:	f9400fa0 	ldr	x0, [x29, #24]
  2015a8:	f9400400 	ldr	x0, [x0, #8]
  2015ac:	f100001f 	cmp	x0, #0x0
  2015b0:	54000061 	b.ne	2015bc <rt_mq_delete+0x30>  // b.any
  2015b4:	d2800100 	mov	x0, #0x8                   	// #8
  2015b8:	14000015 	b	20160c <rt_mq_delete+0x80>
  2015bc:	f9400fa0 	ldr	x0, [x29, #24]
  2015c0:	b9400000 	ldr	w0, [x0]
  2015c4:	7100181f 	cmp	w0, #0x6
  2015c8:	54000060 	b.eq	2015d4 <rt_mq_delete+0x48>  // b.none
  2015cc:	d2800100 	mov	x0, #0x8                   	// #8
  2015d0:	1400000f 	b	20160c <rt_mq_delete+0x80>
  2015d4:	f9400fa0 	ldr	x0, [x29, #24]
  2015d8:	f9400400 	ldr	x0, [x0, #8]
  2015dc:	aa0003e1 	mov	x1, x0
  2015e0:	52800480 	mov	w0, #0x24                  	// #36
  2015e4:	940008ae 	bl	20389c <syscall>
  2015e8:	f90017a0 	str	x0, [x29, #40]
  2015ec:	f94017a0 	ldr	x0, [x29, #40]
  2015f0:	f100001f 	cmp	x0, #0x0
  2015f4:	54000060 	b.eq	201600 <rt_mq_delete+0x74>  // b.none
  2015f8:	f94017a0 	ldr	x0, [x29, #40]
  2015fc:	14000004 	b	20160c <rt_mq_delete+0x80>
  201600:	f9400fa0 	ldr	x0, [x29, #24]
  201604:	94001847 	bl	207720 <free>
  201608:	d2800000 	mov	x0, #0x0                   	// #0
}
  20160c:	a8c37bfd 	ldp	x29, x30, [sp], #48
  201610:	d65f03c0 	ret

0000000000201614 <rt_mq_detach>:

rt_err_t rt_mq_detach(rt_mq_t mq)
{
  201614:	a9bd7bfd 	stp	x29, x30, [sp, #-48]!
  201618:	910003fd 	mov	x29, sp
  20161c:	f9000fa0 	str	x0, [x29, #24]
    RT_USER_IPC_DETACH(mq, RT_Object_Class_MessageQueue, _NRSYS_mq_delete);
  201620:	f9400fa0 	ldr	x0, [x29, #24]
  201624:	f100001f 	cmp	x0, #0x0
  201628:	540000a0 	b.eq	20163c <rt_mq_detach+0x28>  // b.none
  20162c:	f9400fa0 	ldr	x0, [x29, #24]
  201630:	f9400400 	ldr	x0, [x0, #8]
  201634:	f100001f 	cmp	x0, #0x0
  201638:	54000061 	b.ne	201644 <rt_mq_detach+0x30>  // b.any
  20163c:	d2800100 	mov	x0, #0x8                   	// #8
  201640:	14000017 	b	20169c <rt_mq_detach+0x88>
  201644:	f9400fa0 	ldr	x0, [x29, #24]
  201648:	b9400000 	ldr	w0, [x0]
  20164c:	7100181f 	cmp	w0, #0x6
  201650:	54000060 	b.eq	20165c <rt_mq_detach+0x48>  // b.none
  201654:	d2800100 	mov	x0, #0x8                   	// #8
  201658:	14000011 	b	20169c <rt_mq_detach+0x88>
  20165c:	f9400fa0 	ldr	x0, [x29, #24]
  201660:	f9400400 	ldr	x0, [x0, #8]
  201664:	aa0003e1 	mov	x1, x0
  201668:	52800480 	mov	w0, #0x24                  	// #36
  20166c:	9400088c 	bl	20389c <syscall>
  201670:	f90017a0 	str	x0, [x29, #40]
  201674:	f94017a0 	ldr	x0, [x29, #40]
  201678:	f100001f 	cmp	x0, #0x0
  20167c:	54000060 	b.eq	201688 <rt_mq_detach+0x74>  // b.none
  201680:	f94017a0 	ldr	x0, [x29, #40]
  201684:	14000006 	b	20169c <rt_mq_detach+0x88>
  201688:	f9400fa0 	ldr	x0, [x29, #24]
  20168c:	b900001f 	str	wzr, [x0]
  201690:	f9400fa0 	ldr	x0, [x29, #24]
  201694:	f900041f 	str	xzr, [x0, #8]
  201698:	d2800000 	mov	x0, #0x0                   	// #0
}
  20169c:	a8c37bfd 	ldp	x29, x30, [sp], #48
  2016a0:	d65f03c0 	ret

00000000002016a4 <rt_mq_send>:

rt_err_t rt_mq_send(rt_mq_t mq, const void *buffer, rt_size_t size)
{
  2016a4:	a9bd7bfd 	stp	x29, x30, [sp, #-48]!
  2016a8:	910003fd 	mov	x29, sp
  2016ac:	f90017a0 	str	x0, [x29, #40]
  2016b0:	f90013a1 	str	x1, [x29, #32]
  2016b4:	f9000fa2 	str	x2, [x29, #24]
    RT_USER_IPC_CHECK(mq, RT_Object_Class_MessageQueue);
  2016b8:	f94017a0 	ldr	x0, [x29, #40]
  2016bc:	f100001f 	cmp	x0, #0x0
  2016c0:	540000a0 	b.eq	2016d4 <rt_mq_send+0x30>  // b.none
  2016c4:	f94017a0 	ldr	x0, [x29, #40]
  2016c8:	f9400400 	ldr	x0, [x0, #8]
  2016cc:	f100001f 	cmp	x0, #0x0
  2016d0:	54000061 	b.ne	2016dc <rt_mq_send+0x38>  // b.any
  2016d4:	d2800100 	mov	x0, #0x8                   	// #8
  2016d8:	1400000e 	b	201710 <rt_mq_send+0x6c>
  2016dc:	f94017a0 	ldr	x0, [x29, #40]
  2016e0:	b9400000 	ldr	w0, [x0]
  2016e4:	7100181f 	cmp	w0, #0x6
  2016e8:	54000060 	b.eq	2016f4 <rt_mq_send+0x50>  // b.none
  2016ec:	d2800100 	mov	x0, #0x8                   	// #8
  2016f0:	14000008 	b	201710 <rt_mq_send+0x6c>
    return syscall(_NRSYS_mq_send, mq->data, buffer, size);
  2016f4:	f94017a0 	ldr	x0, [x29, #40]
  2016f8:	f9400400 	ldr	x0, [x0, #8]
  2016fc:	f9400fa3 	ldr	x3, [x29, #24]
  201700:	f94013a2 	ldr	x2, [x29, #32]
  201704:	aa0003e1 	mov	x1, x0
  201708:	528004a0 	mov	w0, #0x25                  	// #37
  20170c:	94000864 	bl	20389c <syscall>
}
  201710:	a8c37bfd 	ldp	x29, x30, [sp], #48
  201714:	d65f03c0 	ret

0000000000201718 <rt_mq_urgent>:

rt_err_t rt_mq_urgent(rt_mq_t mq, const void *buffer, rt_size_t size)
{
  201718:	a9bd7bfd 	stp	x29, x30, [sp, #-48]!
  20171c:	910003fd 	mov	x29, sp
  201720:	f90017a0 	str	x0, [x29, #40]
  201724:	f90013a1 	str	x1, [x29, #32]
  201728:	f9000fa2 	str	x2, [x29, #24]
    RT_USER_IPC_CHECK(mq, RT_Object_Class_MessageQueue);
  20172c:	f94017a0 	ldr	x0, [x29, #40]
  201730:	f100001f 	cmp	x0, #0x0
  201734:	540000a0 	b.eq	201748 <rt_mq_urgent+0x30>  // b.none
  201738:	f94017a0 	ldr	x0, [x29, #40]
  20173c:	f9400400 	ldr	x0, [x0, #8]
  201740:	f100001f 	cmp	x0, #0x0
  201744:	54000061 	b.ne	201750 <rt_mq_urgent+0x38>  // b.any
  201748:	d2800100 	mov	x0, #0x8                   	// #8
  20174c:	1400000e 	b	201784 <rt_mq_urgent+0x6c>
  201750:	f94017a0 	ldr	x0, [x29, #40]
  201754:	b9400000 	ldr	w0, [x0]
  201758:	7100181f 	cmp	w0, #0x6
  20175c:	54000060 	b.eq	201768 <rt_mq_urgent+0x50>  // b.none
  201760:	d2800100 	mov	x0, #0x8                   	// #8
  201764:	14000008 	b	201784 <rt_mq_urgent+0x6c>
    return syscall(_NRSYS_mq_urgent, mq->data, buffer, size);
  201768:	f94017a0 	ldr	x0, [x29, #40]
  20176c:	f9400400 	ldr	x0, [x0, #8]
  201770:	f9400fa3 	ldr	x3, [x29, #24]
  201774:	f94013a2 	ldr	x2, [x29, #32]
  201778:	aa0003e1 	mov	x1, x0
  20177c:	528004c0 	mov	w0, #0x26                  	// #38
  201780:	94000847 	bl	20389c <syscall>
}
  201784:	a8c37bfd 	ldp	x29, x30, [sp], #48
  201788:	d65f03c0 	ret

000000000020178c <rt_mq_recv>:

rt_err_t rt_mq_recv(rt_mq_t    mq,
                    void      *buffer,
                    rt_size_t  size,
                    rt_int32_t timeout)
{
  20178c:	a9bd7bfd 	stp	x29, x30, [sp, #-48]!
  201790:	910003fd 	mov	x29, sp
  201794:	f90017a0 	str	x0, [x29, #40]
  201798:	f90013a1 	str	x1, [x29, #32]
  20179c:	f9000fa2 	str	x2, [x29, #24]
  2017a0:	b90017a3 	str	w3, [x29, #20]
    RT_USER_IPC_CHECK(mq, RT_Object_Class_MessageQueue);
  2017a4:	f94017a0 	ldr	x0, [x29, #40]
  2017a8:	f100001f 	cmp	x0, #0x0
  2017ac:	540000a0 	b.eq	2017c0 <rt_mq_recv+0x34>  // b.none
  2017b0:	f94017a0 	ldr	x0, [x29, #40]
  2017b4:	f9400400 	ldr	x0, [x0, #8]
  2017b8:	f100001f 	cmp	x0, #0x0
  2017bc:	54000061 	b.ne	2017c8 <rt_mq_recv+0x3c>  // b.any
  2017c0:	d2800100 	mov	x0, #0x8                   	// #8
  2017c4:	1400000f 	b	201800 <rt_mq_recv+0x74>
  2017c8:	f94017a0 	ldr	x0, [x29, #40]
  2017cc:	b9400000 	ldr	w0, [x0]
  2017d0:	7100181f 	cmp	w0, #0x6
  2017d4:	54000060 	b.eq	2017e0 <rt_mq_recv+0x54>  // b.none
  2017d8:	d2800100 	mov	x0, #0x8                   	// #8
  2017dc:	14000009 	b	201800 <rt_mq_recv+0x74>
    return syscall(_NRSYS_mq_recv, mq->data, buffer, size, timeout);
  2017e0:	f94017a0 	ldr	x0, [x29, #40]
  2017e4:	f9400400 	ldr	x0, [x0, #8]
  2017e8:	b94017a4 	ldr	w4, [x29, #20]
  2017ec:	f9400fa3 	ldr	x3, [x29, #24]
  2017f0:	f94013a2 	ldr	x2, [x29, #32]
  2017f4:	aa0003e1 	mov	x1, x0
  2017f8:	528004e0 	mov	w0, #0x27                  	// #39
  2017fc:	94000828 	bl	20389c <syscall>
}
  201800:	a8c37bfd 	ldp	x29, x30, [sp], #48
  201804:	d65f03c0 	ret

0000000000201808 <rt_event_create>:

rt_event_t rt_event_create(const char *name, rt_uint8_t flag)
{
  201808:	a9bd7bfd 	stp	x29, x30, [sp, #-48]!
  20180c:	910003fd 	mov	x29, sp
  201810:	f9000fa0 	str	x0, [x29, #24]
  201814:	39005fa1 	strb	w1, [x29, #23]
    RT_USER_IPC_CREATE(RT_Object_Class_Event, _NRSYS_event_create, name, flag);
  201818:	d2800200 	mov	x0, #0x10                  	// #16
  20181c:	9400162b 	bl	2070c8 <malloc>
  201820:	f90017a0 	str	x0, [x29, #40]
  201824:	f94017a0 	ldr	x0, [x29, #40]
  201828:	f100001f 	cmp	x0, #0x0
  20182c:	54000061 	b.ne	201838 <rt_event_create+0x30>  // b.any
  201830:	d2800000 	mov	x0, #0x0                   	// #0
  201834:	14000015 	b	201888 <rt_event_create+0x80>
  201838:	39405fa0 	ldrb	w0, [x29, #23]
  20183c:	2a0003e2 	mov	w2, w0
  201840:	f9400fa1 	ldr	x1, [x29, #24]
  201844:	52800340 	mov	w0, #0x1a                  	// #26
  201848:	94000815 	bl	20389c <syscall>
  20184c:	aa0003e1 	mov	x1, x0
  201850:	f94017a0 	ldr	x0, [x29, #40]
  201854:	f9000401 	str	x1, [x0, #8]
  201858:	f94017a0 	ldr	x0, [x29, #40]
  20185c:	f9400400 	ldr	x0, [x0, #8]
  201860:	f100001f 	cmp	x0, #0x0
  201864:	540000a0 	b.eq	201878 <rt_event_create+0x70>  // b.none
  201868:	f94017a0 	ldr	x0, [x29, #40]
  20186c:	52800081 	mov	w1, #0x4                   	// #4
  201870:	b9000001 	str	w1, [x0]
  201874:	14000004 	b	201884 <rt_event_create+0x7c>
  201878:	f94017a0 	ldr	x0, [x29, #40]
  20187c:	940017a9 	bl	207720 <free>
  201880:	f90017bf 	str	xzr, [x29, #40]
  201884:	f94017a0 	ldr	x0, [x29, #40]
}
  201888:	a8c37bfd 	ldp	x29, x30, [sp], #48
  20188c:	d65f03c0 	ret

0000000000201890 <rt_event_init>:

rt_err_t rt_event_init(rt_event_t event, const char *name, rt_uint8_t flag)
{
  201890:	a9bd7bfd 	stp	x29, x30, [sp, #-48]!
  201894:	910003fd 	mov	x29, sp
  201898:	f90017a0 	str	x0, [x29, #40]
  20189c:	f90013a1 	str	x1, [x29, #32]
  2018a0:	39007fa2 	strb	w2, [x29, #31]
    RT_USER_IPC_INIT(event, RT_Object_Class_Event, _NRSYS_event_create, name, flag);
  2018a4:	f94017a0 	ldr	x0, [x29, #40]
  2018a8:	f100001f 	cmp	x0, #0x0
  2018ac:	54000061 	b.ne	2018b8 <rt_event_init+0x28>  // b.any
  2018b0:	d2800100 	mov	x0, #0x8                   	// #8
  2018b4:	14000013 	b	201900 <rt_event_init+0x70>
  2018b8:	39407fa0 	ldrb	w0, [x29, #31]
  2018bc:	2a0003e2 	mov	w2, w0
  2018c0:	f94013a1 	ldr	x1, [x29, #32]
  2018c4:	52800340 	mov	w0, #0x1a                  	// #26
  2018c8:	940007f5 	bl	20389c <syscall>
  2018cc:	aa0003e1 	mov	x1, x0
  2018d0:	f94017a0 	ldr	x0, [x29, #40]
  2018d4:	f9000401 	str	x1, [x0, #8]
  2018d8:	f94017a0 	ldr	x0, [x29, #40]
  2018dc:	f9400400 	ldr	x0, [x0, #8]
  2018e0:	f100001f 	cmp	x0, #0x0
  2018e4:	540000c0 	b.eq	2018fc <rt_event_init+0x6c>  // b.none
  2018e8:	f94017a0 	ldr	x0, [x29, #40]
  2018ec:	52800081 	mov	w1, #0x4                   	// #4
  2018f0:	b9000001 	str	w1, [x0]
  2018f4:	d2800000 	mov	x0, #0x0                   	// #0
  2018f8:	14000002 	b	201900 <rt_event_init+0x70>
  2018fc:	d2800020 	mov	x0, #0x1                   	// #1
}
  201900:	a8c37bfd 	ldp	x29, x30, [sp], #48
  201904:	d65f03c0 	ret

0000000000201908 <rt_event_delete>:

rt_err_t rt_event_delete(rt_event_t event)
{
  201908:	a9bd7bfd 	stp	x29, x30, [sp, #-48]!
  20190c:	910003fd 	mov	x29, sp
  201910:	f9000fa0 	str	x0, [x29, #24]
    RT_USER_IPC_DELETE(event, RT_Object_Class_Event, _NRSYS_event_delete);
  201914:	f9400fa0 	ldr	x0, [x29, #24]
  201918:	f100001f 	cmp	x0, #0x0
  20191c:	540000a0 	b.eq	201930 <rt_event_delete+0x28>  // b.none
  201920:	f9400fa0 	ldr	x0, [x29, #24]
  201924:	f9400400 	ldr	x0, [x0, #8]
  201928:	f100001f 	cmp	x0, #0x0
  20192c:	54000061 	b.ne	201938 <rt_event_delete+0x30>  // b.any
  201930:	d2800100 	mov	x0, #0x8                   	// #8
  201934:	14000015 	b	201988 <rt_event_delete+0x80>
  201938:	f9400fa0 	ldr	x0, [x29, #24]
  20193c:	b9400000 	ldr	w0, [x0]
  201940:	7100101f 	cmp	w0, #0x4
  201944:	54000060 	b.eq	201950 <rt_event_delete+0x48>  // b.none
  201948:	d2800100 	mov	x0, #0x8                   	// #8
  20194c:	1400000f 	b	201988 <rt_event_delete+0x80>
  201950:	f9400fa0 	ldr	x0, [x29, #24]
  201954:	f9400400 	ldr	x0, [x0, #8]
  201958:	aa0003e1 	mov	x1, x0
  20195c:	52800360 	mov	w0, #0x1b                  	// #27
  201960:	940007cf 	bl	20389c <syscall>
  201964:	f90017a0 	str	x0, [x29, #40]
  201968:	f94017a0 	ldr	x0, [x29, #40]
  20196c:	f100001f 	cmp	x0, #0x0
  201970:	54000060 	b.eq	20197c <rt_event_delete+0x74>  // b.none
  201974:	f94017a0 	ldr	x0, [x29, #40]
  201978:	14000004 	b	201988 <rt_event_delete+0x80>
  20197c:	f9400fa0 	ldr	x0, [x29, #24]
  201980:	94001768 	bl	207720 <free>
  201984:	d2800000 	mov	x0, #0x0                   	// #0
}
  201988:	a8c37bfd 	ldp	x29, x30, [sp], #48
  20198c:	d65f03c0 	ret

0000000000201990 <rt_event_detach>:

rt_err_t rt_event_detach(rt_event_t event)
{
  201990:	a9bd7bfd 	stp	x29, x30, [sp, #-48]!
  201994:	910003fd 	mov	x29, sp
  201998:	f9000fa0 	str	x0, [x29, #24]
    RT_USER_IPC_DETACH(event, RT_Object_Class_Event, _NRSYS_event_delete);
  20199c:	f9400fa0 	ldr	x0, [x29, #24]
  2019a0:	f100001f 	cmp	x0, #0x0
  2019a4:	540000a0 	b.eq	2019b8 <rt_event_detach+0x28>  // b.none
  2019a8:	f9400fa0 	ldr	x0, [x29, #24]
  2019ac:	f9400400 	ldr	x0, [x0, #8]
  2019b0:	f100001f 	cmp	x0, #0x0
  2019b4:	54000061 	b.ne	2019c0 <rt_event_detach+0x30>  // b.any
  2019b8:	d2800100 	mov	x0, #0x8                   	// #8
  2019bc:	14000017 	b	201a18 <rt_event_detach+0x88>
  2019c0:	f9400fa0 	ldr	x0, [x29, #24]
  2019c4:	b9400000 	ldr	w0, [x0]
  2019c8:	7100101f 	cmp	w0, #0x4
  2019cc:	54000060 	b.eq	2019d8 <rt_event_detach+0x48>  // b.none
  2019d0:	d2800100 	mov	x0, #0x8                   	// #8
  2019d4:	14000011 	b	201a18 <rt_event_detach+0x88>
  2019d8:	f9400fa0 	ldr	x0, [x29, #24]
  2019dc:	f9400400 	ldr	x0, [x0, #8]
  2019e0:	aa0003e1 	mov	x1, x0
  2019e4:	52800360 	mov	w0, #0x1b                  	// #27
  2019e8:	940007ad 	bl	20389c <syscall>
  2019ec:	f90017a0 	str	x0, [x29, #40]
  2019f0:	f94017a0 	ldr	x0, [x29, #40]
  2019f4:	f100001f 	cmp	x0, #0x0
  2019f8:	54000060 	b.eq	201a04 <rt_event_detach+0x74>  // b.none
  2019fc:	f94017a0 	ldr	x0, [x29, #40]
  201a00:	14000006 	b	201a18 <rt_event_detach+0x88>
  201a04:	f9400fa0 	ldr	x0, [x29, #24]
  201a08:	b900001f 	str	wzr, [x0]
  201a0c:	f9400fa0 	ldr	x0, [x29, #24]
  201a10:	f900041f 	str	xzr, [x0, #8]
  201a14:	d2800000 	mov	x0, #0x0                   	// #0
}
  201a18:	a8c37bfd 	ldp	x29, x30, [sp], #48
  201a1c:	d65f03c0 	ret

0000000000201a20 <rt_event_send>:

rt_err_t rt_event_send(rt_event_t event, rt_uint32_t set)
{
  201a20:	a9be7bfd 	stp	x29, x30, [sp, #-32]!
  201a24:	910003fd 	mov	x29, sp
  201a28:	f9000fa0 	str	x0, [x29, #24]
  201a2c:	b90017a1 	str	w1, [x29, #20]
    RT_USER_IPC_CHECK(event, RT_Object_Class_Event);
  201a30:	f9400fa0 	ldr	x0, [x29, #24]
  201a34:	f100001f 	cmp	x0, #0x0
  201a38:	540000a0 	b.eq	201a4c <rt_event_send+0x2c>  // b.none
  201a3c:	f9400fa0 	ldr	x0, [x29, #24]
  201a40:	f9400400 	ldr	x0, [x0, #8]
  201a44:	f100001f 	cmp	x0, #0x0
  201a48:	54000061 	b.ne	201a54 <rt_event_send+0x34>  // b.any
  201a4c:	d2800100 	mov	x0, #0x8                   	// #8
  201a50:	1400000d 	b	201a84 <rt_event_send+0x64>
  201a54:	f9400fa0 	ldr	x0, [x29, #24]
  201a58:	b9400000 	ldr	w0, [x0]
  201a5c:	7100101f 	cmp	w0, #0x4
  201a60:	54000060 	b.eq	201a6c <rt_event_send+0x4c>  // b.none
  201a64:	d2800100 	mov	x0, #0x8                   	// #8
  201a68:	14000007 	b	201a84 <rt_event_send+0x64>
    return syscall(_NRSYS_event_send, event->data, set);
  201a6c:	f9400fa0 	ldr	x0, [x29, #24]
  201a70:	f9400400 	ldr	x0, [x0, #8]
  201a74:	b94017a2 	ldr	w2, [x29, #20]
  201a78:	aa0003e1 	mov	x1, x0
  201a7c:	52800380 	mov	w0, #0x1c                  	// #28
  201a80:	94000787 	bl	20389c <syscall>
}
  201a84:	a8c27bfd 	ldp	x29, x30, [sp], #32
  201a88:	d65f03c0 	ret

0000000000201a8c <rt_event_recv>:
rt_err_t rt_event_recv(rt_event_t   event,
                       rt_uint32_t  set,
                       rt_uint8_t   opt,
                       rt_int32_t   timeout,
                       rt_uint32_t *recved)
{
  201a8c:	a9bd7bfd 	stp	x29, x30, [sp, #-48]!
  201a90:	910003fd 	mov	x29, sp
  201a94:	f90017a0 	str	x0, [x29, #40]
  201a98:	b90027a1 	str	w1, [x29, #36]
  201a9c:	39008fa2 	strb	w2, [x29, #35]
  201aa0:	b9001fa3 	str	w3, [x29, #28]
  201aa4:	f9000ba4 	str	x4, [x29, #16]
    RT_USER_IPC_CHECK(event, RT_Object_Class_Event);
  201aa8:	f94017a0 	ldr	x0, [x29, #40]
  201aac:	f100001f 	cmp	x0, #0x0
  201ab0:	540000a0 	b.eq	201ac4 <rt_event_recv+0x38>  // b.none
  201ab4:	f94017a0 	ldr	x0, [x29, #40]
  201ab8:	f9400400 	ldr	x0, [x0, #8]
  201abc:	f100001f 	cmp	x0, #0x0
  201ac0:	54000061 	b.ne	201acc <rt_event_recv+0x40>  // b.any
  201ac4:	d2800100 	mov	x0, #0x8                   	// #8
  201ac8:	14000011 	b	201b0c <rt_event_recv+0x80>
  201acc:	f94017a0 	ldr	x0, [x29, #40]
  201ad0:	b9400000 	ldr	w0, [x0]
  201ad4:	7100101f 	cmp	w0, #0x4
  201ad8:	54000060 	b.eq	201ae4 <rt_event_recv+0x58>  // b.none
  201adc:	d2800100 	mov	x0, #0x8                   	// #8
  201ae0:	1400000b 	b	201b0c <rt_event_recv+0x80>
    return syscall(_NRSYS_event_recv, event->data, set, opt, timeout, recved);
  201ae4:	f94017a0 	ldr	x0, [x29, #40]
  201ae8:	f9400400 	ldr	x0, [x0, #8]
  201aec:	39408fa1 	ldrb	w1, [x29, #35]
  201af0:	f9400ba5 	ldr	x5, [x29, #16]
  201af4:	b9401fa4 	ldr	w4, [x29, #28]
  201af8:	2a0103e3 	mov	w3, w1
  201afc:	b94027a2 	ldr	w2, [x29, #36]
  201b00:	aa0003e1 	mov	x1, x0
  201b04:	528003a0 	mov	w0, #0x1d                  	// #29
  201b08:	94000765 	bl	20389c <syscall>
}
  201b0c:	a8c37bfd 	ldp	x29, x30, [sp], #48
  201b10:	d65f03c0 	ret

0000000000201b14 <rt_tick_get>:

rt_tick_t rt_tick_get(void)
{
  201b14:	a9bf7bfd 	stp	x29, x30, [sp, #-16]!
  201b18:	910003fd 	mov	x29, sp
    return (rt_tick_t)syscall(_NRSYS_rt_tick_get);
  201b1c:	52800c20 	mov	w0, #0x61                  	// #97
  201b20:	9400075f 	bl	20389c <syscall>
}
  201b24:	a8c17bfd 	ldp	x29, x30, [sp], #16
  201b28:	d65f03c0 	ret

0000000000201b2c <rt_thread_mdelay>:

rt_err_t rt_thread_mdelay(rt_int32_t ms)
{
  201b2c:	a9be7bfd 	stp	x29, x30, [sp, #-32]!
  201b30:	910003fd 	mov	x29, sp
  201b34:	b9001fa0 	str	w0, [x29, #28]
    return (rt_err_t)syscall(_NRSYS_rt_thread_mdelay, ms);
  201b38:	b9401fa1 	ldr	w1, [x29, #28]
  201b3c:	52800cc0 	mov	w0, #0x66                  	// #102
  201b40:	94000757 	bl	20389c <syscall>
}
  201b44:	a8c27bfd 	ldp	x29, x30, [sp], #32
  201b48:	d65f03c0 	ret

0000000000201b4c <lwp_shmget>:

int lwp_shmget(size_t key, size_t size, int create)
{
  201b4c:	a9bd7bfd 	stp	x29, x30, [sp, #-48]!
  201b50:	910003fd 	mov	x29, sp
  201b54:	f90017a0 	str	x0, [x29, #40]
  201b58:	f90013a1 	str	x1, [x29, #32]
  201b5c:	b9001fa2 	str	w2, [x29, #28]
    return (int)syscall(_NRSYS_shmget, key, size, create);
  201b60:	b9401fa3 	ldr	w3, [x29, #28]
  201b64:	f94013a2 	ldr	x2, [x29, #32]
  201b68:	f94017a1 	ldr	x1, [x29, #40]
  201b6c:	528006e0 	mov	w0, #0x37                  	// #55
  201b70:	9400074b 	bl	20389c <syscall>
}
  201b74:	a8c37bfd 	ldp	x29, x30, [sp], #48
  201b78:	d65f03c0 	ret

0000000000201b7c <lwp_shmrm>:

int lwp_shmrm(int id)
{
  201b7c:	a9be7bfd 	stp	x29, x30, [sp, #-32]!
  201b80:	910003fd 	mov	x29, sp
  201b84:	b9001fa0 	str	w0, [x29, #28]
    return (int)syscall(_NRSYS_shmrm, id);
  201b88:	b9401fa1 	ldr	w1, [x29, #28]
  201b8c:	52800700 	mov	w0, #0x38                  	// #56
  201b90:	94000743 	bl	20389c <syscall>
}
  201b94:	a8c27bfd 	ldp	x29, x30, [sp], #32
  201b98:	d65f03c0 	ret

0000000000201b9c <lwp_shmat>:

void* lwp_shmat(int id, void* shm_vaddr)
{
  201b9c:	a9be7bfd 	stp	x29, x30, [sp, #-32]!
  201ba0:	910003fd 	mov	x29, sp
  201ba4:	b9001fa0 	str	w0, [x29, #28]
  201ba8:	f9000ba1 	str	x1, [x29, #16]
    return (void*)syscall(_NRSYS_shmat, id, shm_vaddr);
  201bac:	f9400ba2 	ldr	x2, [x29, #16]
  201bb0:	b9401fa1 	ldr	w1, [x29, #28]
  201bb4:	52800720 	mov	w0, #0x39                  	// #57
  201bb8:	94000739 	bl	20389c <syscall>
}
  201bbc:	a8c27bfd 	ldp	x29, x30, [sp], #32
  201bc0:	d65f03c0 	ret

0000000000201bc4 <lwp_shmdt>:

int lwp_shmdt(void* shm_vaddr)
{
  201bc4:	a9be7bfd 	stp	x29, x30, [sp, #-32]!
  201bc8:	910003fd 	mov	x29, sp
  201bcc:	f9000fa0 	str	x0, [x29, #24]
    return (int)syscall(_NRSYS_shmdt, shm_vaddr);
  201bd0:	f9400fa1 	ldr	x1, [x29, #24]
  201bd4:	52800740 	mov	w0, #0x3a                  	// #58
  201bd8:	94000731 	bl	20389c <syscall>
}
  201bdc:	a8c27bfd 	ldp	x29, x30, [sp], #32
  201be0:	d65f03c0 	ret

0000000000201be4 <exec>:

int exec(char *filename, int argc, char **argv, char **envp)
{
  201be4:	a9bd7bfd 	stp	x29, x30, [sp, #-48]!
  201be8:	910003fd 	mov	x29, sp
  201bec:	f90017a0 	str	x0, [x29, #40]
  201bf0:	b90027a1 	str	w1, [x29, #36]
  201bf4:	f9000fa2 	str	x2, [x29, #24]
  201bf8:	f9000ba3 	str	x3, [x29, #16]
    return (int)syscall(_NRSYS_exec, filename, argc, argv, envp);
  201bfc:	f9400ba4 	ldr	x4, [x29, #16]
  201c00:	f9400fa3 	ldr	x3, [x29, #24]
  201c04:	b94027a2 	ldr	w2, [x29, #36]
  201c08:	f94017a1 	ldr	x1, [x29, #40]
  201c0c:	528001a0 	mov	w0, #0xd                   	// #13
  201c10:	94000723 	bl	20389c <syscall>
}
  201c14:	a8c37bfd 	ldp	x29, x30, [sp], #48
  201c18:	d65f03c0 	ret

0000000000201c1c <lwp_kill>:

int lwp_kill(pid_t pid, int sig)
{
  201c1c:	a9be7bfd 	stp	x29, x30, [sp, #-32]!
  201c20:	910003fd 	mov	x29, sp
  201c24:	b9001fa0 	str	w0, [x29, #28]
  201c28:	b9001ba1 	str	w1, [x29, #24]
    return (int)syscall(_NRSYS_kill, pid, sig);
  201c2c:	b9401ba2 	ldr	w2, [x29, #24]
  201c30:	b9401fa1 	ldr	w1, [x29, #28]
  201c34:	528001c0 	mov	w0, #0xe                   	// #14
  201c38:	94000719 	bl	20389c <syscall>
}
  201c3c:	a8c27bfd 	ldp	x29, x30, [sp], #32
  201c40:	d65f03c0 	ret

0000000000201c44 <lwp_tkill>:

int lwp_tkill(int tid, int sig)
{
  201c44:	a9be7bfd 	stp	x29, x30, [sp, #-32]!
  201c48:	910003fd 	mov	x29, sp
  201c4c:	b9001fa0 	str	w0, [x29, #28]
  201c50:	b9001ba1 	str	w1, [x29, #24]
    return (int)syscall(_NRSYS_tkill, tid, sig);
  201c54:	b9401ba2 	ldr	w2, [x29, #24]
  201c58:	b9401fa1 	ldr	w1, [x29, #28]
  201c5c:	52800d20 	mov	w0, #0x69                  	// #105
  201c60:	9400070f 	bl	20389c <syscall>
}
  201c64:	a8c27bfd 	ldp	x29, x30, [sp], #32
  201c68:	d65f03c0 	ret

0000000000201c6c <waitpid>:

pid_t waitpid(pid_t pid, int *status, int options)
{
  201c6c:	a9be7bfd 	stp	x29, x30, [sp, #-32]!
  201c70:	910003fd 	mov	x29, sp
  201c74:	b9001fa0 	str	w0, [x29, #28]
  201c78:	f9000ba1 	str	x1, [x29, #16]
  201c7c:	b9001ba2 	str	w2, [x29, #24]
    return (int)syscall(_NRSYS_waitpid, pid, status, options);
  201c80:	b9401ba3 	ldr	w3, [x29, #24]
  201c84:	f9400ba2 	ldr	x2, [x29, #16]
  201c88:	b9401fa1 	ldr	w1, [x29, #28]
  201c8c:	52800dc0 	mov	w0, #0x6e                  	// #110
  201c90:	94000703 	bl	20389c <syscall>
}
  201c94:	a8c27bfd 	ldp	x29, x30, [sp], #32
  201c98:	d65f03c0 	ret

0000000000201c9c <rt_get_errno>:

rt_err_t rt_get_errno(void)
{
  201c9c:	a9bf7bfd 	stp	x29, x30, [sp, #-16]!
  201ca0:	910003fd 	mov	x29, sp
    return (rt_err_t)syscall(_NRSYS_rt_get_errno);
  201ca4:	52800f40 	mov	w0, #0x7a                  	// #122
  201ca8:	940006fd 	bl	20389c <syscall>
}
  201cac:	a8c17bfd 	ldp	x29, x30, [sp], #16
  201cb0:	d65f03c0 	ret

0000000000201cb4 <rt_thread_find>:
#include <pthread.h>

void __pthread_init_run(void (*enter)(void *parameter), void *parameter);

rt_thread_t rt_thread_find(char *name)
{
  201cb4:	a9be7bfd 	stp	x29, x30, [sp, #-32]!
  201cb8:	910003fd 	mov	x29, sp
  201cbc:	f9000fa0 	str	x0, [x29, #24]
    return (rt_thread_t)syscall(_NRSYS_rt_thread_find, name);
  201cc0:	f9400fa1 	ldr	x1, [x29, #24]
  201cc4:	52800880 	mov	w0, #0x44                  	// #68
  201cc8:	940006f5 	bl	20389c <syscall>
}
  201ccc:	a8c27bfd 	ldp	x29, x30, [sp], #32
  201cd0:	d65f03c0 	ret

0000000000201cd4 <rt_thread_user_entry>:
    void (*entry)(void *parameter);
    void *parameter;
};

static void rt_thread_user_entry(void *arg)
{
  201cd4:	a9bc7bfd 	stp	x29, x30, [sp, #-64]!
  201cd8:	910003fd 	mov	x29, sp
  201cdc:	f9000fa0 	str	x0, [x29, #24]
    struct rt_thread_startup_ucontext *ucontext;
    void (*entry)(void *parameter);
    void *parameter;

    ucontext = (struct rt_thread_startup_ucontext *)arg;
  201ce0:	f9400fa0 	ldr	x0, [x29, #24]
  201ce4:	f9001fa0 	str	x0, [x29, #56]
    entry = ucontext->entry;
  201ce8:	f9401fa0 	ldr	x0, [x29, #56]
  201cec:	f9400000 	ldr	x0, [x0]
  201cf0:	f9001ba0 	str	x0, [x29, #48]
    parameter = ucontext->parameter;
  201cf4:	f9401fa0 	ldr	x0, [x29, #56]
  201cf8:	f9400400 	ldr	x0, [x0, #8]
  201cfc:	f90017a0 	str	x0, [x29, #40]
    rt_free(ucontext);
  201d00:	f9401fa0 	ldr	x0, [x29, #56]
  201d04:	94000373 	bl	202ad0 <rt_free>

    __pthread_init_run(entry, parameter);
  201d08:	f94017a1 	ldr	x1, [x29, #40]
  201d0c:	f9401ba0 	ldr	x0, [x29, #48]
  201d10:	940029d6 	bl	20c468 <__pthread_init_run>
}
  201d14:	d503201f 	nop
  201d18:	a8c47bfd 	ldp	x29, x30, [sp], #64
  201d1c:	d65f03c0 	ret

0000000000201d20 <rt_thread_create>:
        void (*entry)(void *parameter),
        void       *parameter,
        rt_uint32_t stack_size,
        rt_uint8_t  priority,
        rt_uint32_t tick)
{
  201d20:	a9b87bfd 	stp	x29, x30, [sp, #-128]!
  201d24:	910003fd 	mov	x29, sp
  201d28:	f9001fa0 	str	x0, [x29, #56]
  201d2c:	f9001ba1 	str	x1, [x29, #48]
  201d30:	f90017a2 	str	x2, [x29, #40]
  201d34:	b90027a3 	str	w3, [x29, #36]
  201d38:	39008fa4 	strb	w4, [x29, #35]
  201d3c:	b9001fa5 	str	w5, [x29, #28]
    rt_thread_t thread;
    void * arg[] = {(void *)name, (void*)entry, (void*)parameter, (void*)(size_t)stack_size, (void*)(size_t)priority, (void*)(size_t)tick};
  201d40:	f9401fa0 	ldr	x0, [x29, #56]
  201d44:	f90023a0 	str	x0, [x29, #64]
  201d48:	f9401ba0 	ldr	x0, [x29, #48]
  201d4c:	f90027a0 	str	x0, [x29, #72]
  201d50:	f94017a0 	ldr	x0, [x29, #40]
  201d54:	f9002ba0 	str	x0, [x29, #80]
  201d58:	b94027a0 	ldr	w0, [x29, #36]
  201d5c:	f9002fa0 	str	x0, [x29, #88]
  201d60:	39408fa0 	ldrb	w0, [x29, #35]
  201d64:	f90033a0 	str	x0, [x29, #96]
  201d68:	b9401fa0 	ldr	w0, [x29, #28]
  201d6c:	f90037a0 	str	x0, [x29, #104]
    struct rt_thread_startup_ucontext *ucontext;

    ucontext = rt_malloc(sizeof *ucontext);
  201d70:	d2800200 	mov	x0, #0x10                  	// #16
  201d74:	94000350 	bl	202ab4 <rt_malloc>
  201d78:	f9003fa0 	str	x0, [x29, #120]
    if (!ucontext)
  201d7c:	f9403fa0 	ldr	x0, [x29, #120]
  201d80:	f100001f 	cmp	x0, #0x0
  201d84:	54000061 	b.ne	201d90 <rt_thread_create+0x70>  // b.any
    {
        return RT_NULL;
  201d88:	d2800000 	mov	x0, #0x0                   	// #0
  201d8c:	14000017 	b	201de8 <rt_thread_create+0xc8>
    }
    ucontext->entry = entry;
  201d90:	f9403fa0 	ldr	x0, [x29, #120]
  201d94:	f9401ba1 	ldr	x1, [x29, #48]
  201d98:	f9000001 	str	x1, [x0]
    ucontext->parameter = parameter;
  201d9c:	f9403fa0 	ldr	x0, [x29, #120]
  201da0:	f94017a1 	ldr	x1, [x29, #40]
  201da4:	f9000401 	str	x1, [x0, #8]
    arg[1] = rt_thread_user_entry;
  201da8:	90000000 	adrp	x0, 201000 <rt_sem_detach+0x84>
  201dac:	91335000 	add	x0, x0, #0xcd4
  201db0:	f90027a0 	str	x0, [x29, #72]
    arg[2] = ucontext;
  201db4:	f9403fa0 	ldr	x0, [x29, #120]
  201db8:	f9002ba0 	str	x0, [x29, #80]

    thread = (rt_thread_t)syscall(_NRSYS_thread_create, arg);
  201dbc:	910103a0 	add	x0, x29, #0x40
  201dc0:	aa0003e1 	mov	x1, x0
  201dc4:	52800500 	mov	w0, #0x28                  	// #40
  201dc8:	940006b5 	bl	20389c <syscall>
  201dcc:	f9003ba0 	str	x0, [x29, #112]
    if (!thread)
  201dd0:	f9403ba0 	ldr	x0, [x29, #112]
  201dd4:	f100001f 	cmp	x0, #0x0
  201dd8:	54000061 	b.ne	201de4 <rt_thread_create+0xc4>  // b.any
    {
        rt_free(ucontext);
  201ddc:	f9403fa0 	ldr	x0, [x29, #120]
  201de0:	9400033c 	bl	202ad0 <rt_free>
    }
    return thread;
  201de4:	f9403ba0 	ldr	x0, [x29, #112]
}
  201de8:	a8c87bfd 	ldp	x29, x30, [sp], #128
  201dec:	d65f03c0 	ret

0000000000201df0 <rt_thread_startup>:

rt_err_t rt_thread_startup(rt_thread_t thread)
{
  201df0:	a9be7bfd 	stp	x29, x30, [sp, #-32]!
  201df4:	910003fd 	mov	x29, sp
  201df8:	f9000fa0 	str	x0, [x29, #24]
    return syscall(_NRSYS_thread_startup, thread);
  201dfc:	f9400fa1 	ldr	x1, [x29, #24]
  201e00:	52800540 	mov	w0, #0x2a                  	// #42
  201e04:	940006a6 	bl	20389c <syscall>
}
  201e08:	a8c27bfd 	ldp	x29, x30, [sp], #32
  201e0c:	d65f03c0 	ret

0000000000201e10 <rt_thread_self>:

rt_thread_t rt_thread_self(void)
{
  201e10:	a9bf7bfd 	stp	x29, x30, [sp, #-16]!
  201e14:	910003fd 	mov	x29, sp
    return (rt_thread_t)syscall(_NRSYS_thread_self);
  201e18:	52800560 	mov	w0, #0x2b                  	// #43
  201e1c:	940006a0 	bl	20389c <syscall>
}
  201e20:	a8c17bfd 	ldp	x29, x30, [sp], #16
  201e24:	d65f03c0 	ret

0000000000201e28 <rt_thread_delete>:

rt_err_t rt_thread_delete(rt_thread_t thread)
{
  201e28:	a9be7bfd 	stp	x29, x30, [sp, #-32]!
  201e2c:	910003fd 	mov	x29, sp
  201e30:	f9000fa0 	str	x0, [x29, #24]
    return syscall(_NRSYS_thread_delete, thread);
  201e34:	f9400fa1 	ldr	x1, [x29, #24]
  201e38:	52800520 	mov	w0, #0x29                  	// #41
  201e3c:	94000698 	bl	20389c <syscall>
}
  201e40:	a8c27bfd 	ldp	x29, x30, [sp], #32
  201e44:	d65f03c0 	ret

0000000000201e48 <rt_enter_critical>:

void rt_enter_critical(void)
{
  201e48:	a9bf7bfd 	stp	x29, x30, [sp, #-16]!
  201e4c:	910003fd 	mov	x29, sp
    syscall(_NRSYS_enter_critical);
  201e50:	52800640 	mov	w0, #0x32                  	// #50
  201e54:	94000692 	bl	20389c <syscall>
}
  201e58:	d503201f 	nop
  201e5c:	a8c17bfd 	ldp	x29, x30, [sp], #16
  201e60:	d65f03c0 	ret

0000000000201e64 <rt_exit_critical>:

void rt_exit_critical(void)
{
  201e64:	a9bf7bfd 	stp	x29, x30, [sp, #-16]!
  201e68:	910003fd 	mov	x29, sp
    syscall(_NRSYS_exit_critical);
  201e6c:	52800660 	mov	w0, #0x33                  	// #51
  201e70:	9400068b 	bl	20389c <syscall>
}
  201e74:	d503201f 	nop
  201e78:	a8c17bfd 	ldp	x29, x30, [sp], #16
  201e7c:	d65f03c0 	ret

0000000000201e80 <cacheflush>:

int cacheflush(void *addr, int size, int cache)
{
  201e80:	a9be7bfd 	stp	x29, x30, [sp, #-32]!
  201e84:	910003fd 	mov	x29, sp
  201e88:	f9000fa0 	str	x0, [x29, #24]
  201e8c:	b90017a1 	str	w1, [x29, #20]
  201e90:	b90013a2 	str	w2, [x29, #16]
    return syscall(_NRSYS_cacheflush, addr, size, cache);
  201e94:	b94013a3 	ldr	w3, [x29, #16]
  201e98:	b94017a2 	ldr	w2, [x29, #20]
  201e9c:	f9400fa1 	ldr	x1, [x29, #24]
  201ea0:	52800d60 	mov	w0, #0x6b                  	// #107
  201ea4:	9400067e 	bl	20389c <syscall>
}
  201ea8:	a8c27bfd 	ldp	x29, x30, [sp], #32
  201eac:	d65f03c0 	ret

0000000000201eb0 <rt_list_init>:
 * @brief initialize a list
 *
 * @param l list to be initialized
 */
rt_inline void rt_list_init(rt_list_t *l)
{
  201eb0:	d10043ff 	sub	sp, sp, #0x10
  201eb4:	f90007e0 	str	x0, [sp, #8]
    l->next = l->prev = l;
  201eb8:	f94007e0 	ldr	x0, [sp, #8]
  201ebc:	f94007e1 	ldr	x1, [sp, #8]
  201ec0:	f9000401 	str	x1, [x0, #8]
  201ec4:	f94007e0 	ldr	x0, [sp, #8]
  201ec8:	f9400401 	ldr	x1, [x0, #8]
  201ecc:	f94007e0 	ldr	x0, [sp, #8]
  201ed0:	f9000001 	str	x1, [x0]
}
  201ed4:	d503201f 	nop
  201ed8:	910043ff 	add	sp, sp, #0x10
  201edc:	d65f03c0 	ret

0000000000201ee0 <rt_list_insert_after>:
 *
 * @param l list to insert it
 * @param n new node to be inserted
 */
rt_inline void rt_list_insert_after(rt_list_t *l, rt_list_t *n)
{
  201ee0:	d10043ff 	sub	sp, sp, #0x10
  201ee4:	f90007e0 	str	x0, [sp, #8]
  201ee8:	f90003e1 	str	x1, [sp]
    l->next->prev = n;
  201eec:	f94007e0 	ldr	x0, [sp, #8]
  201ef0:	f9400000 	ldr	x0, [x0]
  201ef4:	f94003e1 	ldr	x1, [sp]
  201ef8:	f9000401 	str	x1, [x0, #8]
    n->next = l->next;
  201efc:	f94007e0 	ldr	x0, [sp, #8]
  201f00:	f9400001 	ldr	x1, [x0]
  201f04:	f94003e0 	ldr	x0, [sp]
  201f08:	f9000001 	str	x1, [x0]

    l->next = n;
  201f0c:	f94007e0 	ldr	x0, [sp, #8]
  201f10:	f94003e1 	ldr	x1, [sp]
  201f14:	f9000001 	str	x1, [x0]
    n->prev = l;
  201f18:	f94003e0 	ldr	x0, [sp]
  201f1c:	f94007e1 	ldr	x1, [sp, #8]
  201f20:	f9000401 	str	x1, [x0, #8]
}
  201f24:	d503201f 	nop
  201f28:	910043ff 	add	sp, sp, #0x10
  201f2c:	d65f03c0 	ret

0000000000201f30 <rt_list_remove>:
/**
 * @brief remove node from list.
 * @param n the node to remove from the list.
 */
rt_inline void rt_list_remove(rt_list_t *n)
{
  201f30:	d10043ff 	sub	sp, sp, #0x10
  201f34:	f90007e0 	str	x0, [sp, #8]
    n->next->prev = n->prev;
  201f38:	f94007e0 	ldr	x0, [sp, #8]
  201f3c:	f9400000 	ldr	x0, [x0]
  201f40:	f94007e1 	ldr	x1, [sp, #8]
  201f44:	f9400421 	ldr	x1, [x1, #8]
  201f48:	f9000401 	str	x1, [x0, #8]
    n->prev->next = n->next;
  201f4c:	f94007e0 	ldr	x0, [sp, #8]
  201f50:	f9400400 	ldr	x0, [x0, #8]
  201f54:	f94007e1 	ldr	x1, [sp, #8]
  201f58:	f9400021 	ldr	x1, [x1]
  201f5c:	f9000001 	str	x1, [x0]

    n->next = n->prev = n;
  201f60:	f94007e0 	ldr	x0, [sp, #8]
  201f64:	f94007e1 	ldr	x1, [sp, #8]
  201f68:	f9000401 	str	x1, [x0, #8]
  201f6c:	f94007e0 	ldr	x0, [sp, #8]
  201f70:	f9400401 	ldr	x1, [x0, #8]
  201f74:	f94007e0 	ldr	x0, [sp, #8]
  201f78:	f9000001 	str	x1, [x0]
}
  201f7c:	d503201f 	nop
  201f80:	910043ff 	add	sp, sp, #0x10
  201f84:	d65f03c0 	ret

0000000000201f88 <rt_list_isempty>:
/**
 * @brief tests whether a list is empty
 * @param l the list to test.
 */
rt_inline int rt_list_isempty(const rt_list_t *l)
{
  201f88:	d10043ff 	sub	sp, sp, #0x10
  201f8c:	f90007e0 	str	x0, [sp, #8]
    return l->next == l;
  201f90:	f94007e0 	ldr	x0, [sp, #8]
  201f94:	f9400000 	ldr	x0, [x0]
  201f98:	f94007e1 	ldr	x1, [sp, #8]
  201f9c:	eb00003f 	cmp	x1, x0
  201fa0:	1a9f17e0 	cset	w0, eq  // eq = none
  201fa4:	12001c00 	and	w0, w0, #0xff
}
  201fa8:	910043ff 	add	sp, sp, #0x10
  201fac:	d65f03c0 	ret

0000000000201fb0 <_rt_timer_init>:
static void _rt_timer_init(rt_timer_t timer,
                           void (*timeout)(void *parameter),
                           void      *parameter,
                           rt_tick_t  time,
                           rt_uint8_t flag)
{
  201fb0:	a9bc7bfd 	stp	x29, x30, [sp, #-64]!
  201fb4:	910003fd 	mov	x29, sp
  201fb8:	f90017a0 	str	x0, [x29, #40]
  201fbc:	f90013a1 	str	x1, [x29, #32]
  201fc0:	f9000fa2 	str	x2, [x29, #24]
  201fc4:	b90017a3 	str	w3, [x29, #20]
  201fc8:	39004fa4 	strb	w4, [x29, #19]
    int i;

    /* set flag */
    timer->parent.flag  = flag;
  201fcc:	f94017a0 	ldr	x0, [x29, #40]
  201fd0:	39404fa1 	ldrb	w1, [x29, #19]
  201fd4:	39002401 	strb	w1, [x0, #9]

    /* set deactivated */
    timer->parent.flag &= ~RT_TIMER_FLAG_ACTIVATED;
  201fd8:	f94017a0 	ldr	x0, [x29, #40]
  201fdc:	39402400 	ldrb	w0, [x0, #9]
  201fe0:	121f7800 	and	w0, w0, #0xfffffffe
  201fe4:	12001c01 	and	w1, w0, #0xff
  201fe8:	f94017a0 	ldr	x0, [x29, #40]
  201fec:	39002401 	strb	w1, [x0, #9]

    timer->timeout_func = timeout;
  201ff0:	f94017a0 	ldr	x0, [x29, #40]
  201ff4:	f94013a1 	ldr	x1, [x29, #32]
  201ff8:	f9001801 	str	x1, [x0, #48]
    timer->parameter    = parameter;
  201ffc:	f94017a0 	ldr	x0, [x29, #40]
  202000:	f9400fa1 	ldr	x1, [x29, #24]
  202004:	f9001c01 	str	x1, [x0, #56]

    timer->timeout_tick = 0;
  202008:	f94017a0 	ldr	x0, [x29, #40]
  20200c:	b900441f 	str	wzr, [x0, #68]
    timer->init_tick    = time;
  202010:	f94017a0 	ldr	x0, [x29, #40]
  202014:	b94017a1 	ldr	w1, [x29, #20]
  202018:	b9004001 	str	w1, [x0, #64]

    /* initialize timer list */
    for (i = 0; i < RT_TIMER_SKIP_LIST_LEVEL; i++)
  20201c:	b9003fbf 	str	wzr, [x29, #60]
  202020:	1400000a 	b	202048 <_rt_timer_init+0x98>
    {
        rt_list_init(&(timer->row[i]));
  202024:	b9803fa0 	ldrsw	x0, [x29, #60]
  202028:	91000800 	add	x0, x0, #0x2
  20202c:	d37cec00 	lsl	x0, x0, #4
  202030:	f94017a1 	ldr	x1, [x29, #40]
  202034:	8b000020 	add	x0, x1, x0
  202038:	97ffff9e 	bl	201eb0 <rt_list_init>
    for (i = 0; i < RT_TIMER_SKIP_LIST_LEVEL; i++)
  20203c:	b9403fa0 	ldr	w0, [x29, #60]
  202040:	11000400 	add	w0, w0, #0x1
  202044:	b9003fa0 	str	w0, [x29, #60]
  202048:	b9403fa0 	ldr	w0, [x29, #60]
  20204c:	7100001f 	cmp	w0, #0x0
  202050:	54fffead 	b.le	202024 <_rt_timer_init+0x74>
    }
}
  202054:	d503201f 	nop
  202058:	a8c47bfd 	ldp	x29, x30, [sp], #64
  20205c:	d65f03c0 	ret

0000000000202060 <rt_timer_list_next_timeout>:

/* the fist timer always in the last row */
static rt_tick_t rt_timer_list_next_timeout(rt_list_t timer_list[])
{
  202060:	a9bd7bfd 	stp	x29, x30, [sp, #-48]!
  202064:	910003fd 	mov	x29, sp
  202068:	f9000fa0 	str	x0, [x29, #24]
    struct rt_timer *timer;

    if (rt_list_isempty(&timer_list[RT_TIMER_SKIP_LIST_LEVEL - 1]))
  20206c:	f9400fa0 	ldr	x0, [x29, #24]
  202070:	97ffffc6 	bl	201f88 <rt_list_isempty>
  202074:	7100001f 	cmp	w0, #0x0
  202078:	54000060 	b.eq	202084 <rt_timer_list_next_timeout+0x24>  // b.none
        return RT_TICK_MAX;
  20207c:	12800000 	mov	w0, #0xffffffff            	// #-1
  202080:	14000007 	b	20209c <rt_timer_list_next_timeout+0x3c>

    timer = rt_list_entry(timer_list[RT_TIMER_SKIP_LIST_LEVEL - 1].next,
  202084:	f9400fa0 	ldr	x0, [x29, #24]
  202088:	f9400000 	ldr	x0, [x0]
  20208c:	d1008000 	sub	x0, x0, #0x20
  202090:	f90017a0 	str	x0, [x29, #40]
                          struct rt_timer, row[RT_TIMER_SKIP_LIST_LEVEL - 1]);

    return timer->timeout_tick;
  202094:	f94017a0 	ldr	x0, [x29, #40]
  202098:	b9404400 	ldr	w0, [x0, #68]
}
  20209c:	a8c37bfd 	ldp	x29, x30, [sp], #48
  2020a0:	d65f03c0 	ret

00000000002020a4 <_rt_timer_remove>:

rt_inline void _rt_timer_remove(rt_timer_t timer)
{
  2020a4:	a9bd7bfd 	stp	x29, x30, [sp, #-48]!
  2020a8:	910003fd 	mov	x29, sp
  2020ac:	f9000fa0 	str	x0, [x29, #24]
    int i;

    for (i = 0; i < RT_TIMER_SKIP_LIST_LEVEL; i++)
  2020b0:	b9002fbf 	str	wzr, [x29, #44]
  2020b4:	1400000a 	b	2020dc <_rt_timer_remove+0x38>
    {
        rt_list_remove(&timer->row[i]);
  2020b8:	b9802fa0 	ldrsw	x0, [x29, #44]
  2020bc:	91000800 	add	x0, x0, #0x2
  2020c0:	d37cec00 	lsl	x0, x0, #4
  2020c4:	f9400fa1 	ldr	x1, [x29, #24]
  2020c8:	8b000020 	add	x0, x1, x0
  2020cc:	97ffff99 	bl	201f30 <rt_list_remove>
    for (i = 0; i < RT_TIMER_SKIP_LIST_LEVEL; i++)
  2020d0:	b9402fa0 	ldr	w0, [x29, #44]
  2020d4:	11000400 	add	w0, w0, #0x1
  2020d8:	b9002fa0 	str	w0, [x29, #44]
  2020dc:	b9402fa0 	ldr	w0, [x29, #44]
  2020e0:	7100001f 	cmp	w0, #0x0
  2020e4:	54fffead 	b.le	2020b8 <_rt_timer_remove+0x14>
    }
}
  2020e8:	d503201f 	nop
  2020ec:	a8c37bfd 	ldp	x29, x30, [sp], #48
  2020f0:	d65f03c0 	ret

00000000002020f4 <rt_timer_init>:
                   const char *name,
                   void (*timeout)(void *parameter),
                   void       *parameter,
                   rt_tick_t   time,
                   rt_uint8_t  flag)
{
  2020f4:	a9bc7bfd 	stp	x29, x30, [sp, #-64]!
  2020f8:	910003fd 	mov	x29, sp
  2020fc:	f9001fa0 	str	x0, [x29, #56]
  202100:	f9001ba1 	str	x1, [x29, #48]
  202104:	f90017a2 	str	x2, [x29, #40]
  202108:	f90013a3 	str	x3, [x29, #32]
  20210c:	b9001fa4 	str	w4, [x29, #28]
  202110:	39006fa5 	strb	w5, [x29, #27]
    _rt_timer_init(timer, timeout, parameter, time, flag);
  202114:	39406fa4 	ldrb	w4, [x29, #27]
  202118:	b9401fa3 	ldr	w3, [x29, #28]
  20211c:	f94013a2 	ldr	x2, [x29, #32]
  202120:	f94017a1 	ldr	x1, [x29, #40]
  202124:	f9401fa0 	ldr	x0, [x29, #56]
  202128:	97ffffa2 	bl	201fb0 <_rt_timer_init>
}
  20212c:	d503201f 	nop
  202130:	a8c47bfd 	ldp	x29, x30, [sp], #64
  202134:	d65f03c0 	ret

0000000000202138 <rt_timer_detach>:
 * @param timer the static timer object
 *
 * @return the operation status, RT_EOK on OK; RT_ERROR on error
 */
rt_err_t rt_timer_detach(rt_timer_t timer)
{
  202138:	a9be7bfd 	stp	x29, x30, [sp, #-32]!
  20213c:	910003fd 	mov	x29, sp
  202140:	f9000fa0 	str	x0, [x29, #24]

    /* make sure take mutex */
    while(rt_mutex_take(mutex, RT_WAITING_FOREVER) != RT_EOK);
  202144:	d503201f 	nop
  202148:	f0000080 	adrp	x0, 215000 <__data_start__>
  20214c:	91092000 	add	x0, x0, #0x248
  202150:	f9400000 	ldr	x0, [x0]
  202154:	12800001 	mov	w1, #0xffffffff            	// #-1
  202158:	97fffaef 	bl	200d14 <rt_mutex_take>
  20215c:	f100001f 	cmp	x0, #0x0
  202160:	54ffff41 	b.ne	202148 <rt_timer_detach+0x10>  // b.any

    _rt_timer_remove(timer);
  202164:	f9400fa0 	ldr	x0, [x29, #24]
  202168:	97ffffcf 	bl	2020a4 <_rt_timer_remove>

    /* release mutex */
    rt_mutex_release(mutex);
  20216c:	f0000080 	adrp	x0, 215000 <__data_start__>
  202170:	91092000 	add	x0, x0, #0x248
  202174:	f9400000 	ldr	x0, [x0]
  202178:	97fffb02 	bl	200d80 <rt_mutex_release>

    return RT_EOK;
  20217c:	d2800000 	mov	x0, #0x0                   	// #0
}
  202180:	a8c27bfd 	ldp	x29, x30, [sp], #32
  202184:	d65f03c0 	ret

0000000000202188 <rt_timer_create>:
rt_timer_t rt_timer_create(const char *name,
                           void (*timeout)(void *parameter),
                           void       *parameter,
                           rt_tick_t   time,
                           rt_uint8_t  flag)
{
  202188:	a9bc7bfd 	stp	x29, x30, [sp, #-64]!
  20218c:	910003fd 	mov	x29, sp
  202190:	f90017a0 	str	x0, [x29, #40]
  202194:	f90013a1 	str	x1, [x29, #32]
  202198:	f9000fa2 	str	x2, [x29, #24]
  20219c:	b90017a3 	str	w3, [x29, #20]
  2021a0:	39004fa4 	strb	w4, [x29, #19]
    struct rt_timer *timer;

    /* allocate a timer object */
    timer = (struct rt_timer *)malloc(sizeof(struct rt_timer));
  2021a4:	d2800900 	mov	x0, #0x48                  	// #72
  2021a8:	940013c8 	bl	2070c8 <malloc>
  2021ac:	f9001fa0 	str	x0, [x29, #56]
    if (timer == RT_NULL)
  2021b0:	f9401fa0 	ldr	x0, [x29, #56]
  2021b4:	f100001f 	cmp	x0, #0x0
  2021b8:	54000061 	b.ne	2021c4 <rt_timer_create+0x3c>  // b.any
    {
        return RT_NULL;
  2021bc:	d2800000 	mov	x0, #0x0                   	// #0
  2021c0:	14000008 	b	2021e0 <rt_timer_create+0x58>
    }

    _rt_timer_init(timer, timeout, parameter, time, flag);
  2021c4:	39404fa4 	ldrb	w4, [x29, #19]
  2021c8:	b94017a3 	ldr	w3, [x29, #20]
  2021cc:	f9400fa2 	ldr	x2, [x29, #24]
  2021d0:	f94013a1 	ldr	x1, [x29, #32]
  2021d4:	f9401fa0 	ldr	x0, [x29, #56]
  2021d8:	97ffff76 	bl	201fb0 <_rt_timer_init>

    return timer;
  2021dc:	f9401fa0 	ldr	x0, [x29, #56]
}
  2021e0:	a8c47bfd 	ldp	x29, x30, [sp], #64
  2021e4:	d65f03c0 	ret

00000000002021e8 <rt_timer_delete>:
 * @param timer the timer to be deleted
 *
 * @return the operation status, RT_EOK on OK; RT_ERROR on error
 */
rt_err_t rt_timer_delete(rt_timer_t timer)
{
  2021e8:	a9be7bfd 	stp	x29, x30, [sp, #-32]!
  2021ec:	910003fd 	mov	x29, sp
  2021f0:	f9000fa0 	str	x0, [x29, #24]

    /* make sure take mutex */
    while(rt_mutex_take(mutex, RT_WAITING_FOREVER) != RT_EOK);
  2021f4:	d503201f 	nop
  2021f8:	f0000080 	adrp	x0, 215000 <__data_start__>
  2021fc:	91092000 	add	x0, x0, #0x248
  202200:	f9400000 	ldr	x0, [x0]
  202204:	12800001 	mov	w1, #0xffffffff            	// #-1
  202208:	97fffac3 	bl	200d14 <rt_mutex_take>
  20220c:	f100001f 	cmp	x0, #0x0
  202210:	54ffff41 	b.ne	2021f8 <rt_timer_delete+0x10>  // b.any

    _rt_timer_remove(timer);
  202214:	f9400fa0 	ldr	x0, [x29, #24]
  202218:	97ffffa3 	bl	2020a4 <_rt_timer_remove>

    /*free timer object */
    free(timer);
  20221c:	f9400fa0 	ldr	x0, [x29, #24]
  202220:	94001540 	bl	207720 <free>

    /* release mutex */
    rt_mutex_release(mutex);
  202224:	f0000080 	adrp	x0, 215000 <__data_start__>
  202228:	91092000 	add	x0, x0, #0x248
  20222c:	f9400000 	ldr	x0, [x0]
  202230:	97fffad4 	bl	200d80 <rt_mutex_release>

    return RT_EOK;
  202234:	d2800000 	mov	x0, #0x0                   	// #0
}
  202238:	a8c27bfd 	ldp	x29, x30, [sp], #32
  20223c:	d65f03c0 	ret

0000000000202240 <rt_timer_start>:
 * @param timer the timer to be started
 *
 * @return the operation status, RT_EOK on OK, -RT_ERROR on error
 */
rt_err_t rt_timer_start(rt_timer_t timer)
{
  202240:	a9bb7bfd 	stp	x29, x30, [sp, #-80]!
  202244:	910003fd 	mov	x29, sp
  202248:	f9000fa0 	str	x0, [x29, #24]
    rt_list_t *row_head[RT_TIMER_SKIP_LIST_LEVEL];
    unsigned int tst_nr;
    static unsigned int random_nr;

    /* make sure take mutex */
    while(rt_mutex_take(mutex, RT_WAITING_FOREVER) != RT_EOK);
  20224c:	d503201f 	nop
  202250:	f0000080 	adrp	x0, 215000 <__data_start__>
  202254:	91092000 	add	x0, x0, #0x248
  202258:	f9400000 	ldr	x0, [x0]
  20225c:	12800001 	mov	w1, #0xffffffff            	// #-1
  202260:	97fffaad 	bl	200d14 <rt_mutex_take>
  202264:	f100001f 	cmp	x0, #0x0
  202268:	54ffff41 	b.ne	202250 <rt_timer_start+0x10>  // b.any
    /* remove timer from list */
    _rt_timer_remove(timer);
  20226c:	f9400fa0 	ldr	x0, [x29, #24]
  202270:	97ffff8d 	bl	2020a4 <_rt_timer_remove>
    /* change status of timer */
    timer->parent.flag &= ~RT_TIMER_FLAG_ACTIVATED;
  202274:	f9400fa0 	ldr	x0, [x29, #24]
  202278:	39402400 	ldrb	w0, [x0, #9]
  20227c:	121f7800 	and	w0, w0, #0xfffffffe
  202280:	12001c01 	and	w1, w0, #0xff
  202284:	f9400fa0 	ldr	x0, [x29, #24]
  202288:	39002401 	strb	w1, [x0, #9]
    /* release mutex */
    rt_mutex_release(mutex);
  20228c:	f0000080 	adrp	x0, 215000 <__data_start__>
  202290:	91092000 	add	x0, x0, #0x248
  202294:	f9400000 	ldr	x0, [x0]
  202298:	97fffaba 	bl	200d80 <rt_mutex_release>

    /*
     * get timeout tick,
     * the max timeout tick shall not great than RT_TICK_MAX/2
     */
    timer->timeout_tick = rt_tick_get() + timer->init_tick;
  20229c:	97fffe1e 	bl	201b14 <rt_tick_get>
  2022a0:	2a0003e1 	mov	w1, w0
  2022a4:	f9400fa0 	ldr	x0, [x29, #24]
  2022a8:	b9404000 	ldr	w0, [x0, #64]
  2022ac:	0b000021 	add	w1, w1, w0
  2022b0:	f9400fa0 	ldr	x0, [x29, #24]
  2022b4:	b9004401 	str	w1, [x0, #68]

    /* make sure take mutex */
    while(rt_mutex_take(mutex, RT_WAITING_FOREVER) != RT_EOK);
  2022b8:	d503201f 	nop
  2022bc:	f0000080 	adrp	x0, 215000 <__data_start__>
  2022c0:	91092000 	add	x0, x0, #0x248
  2022c4:	f9400000 	ldr	x0, [x0]
  2022c8:	12800001 	mov	w1, #0xffffffff            	// #-1
  2022cc:	97fffa92 	bl	200d14 <rt_mutex_take>
  2022d0:	f100001f 	cmp	x0, #0x0
  2022d4:	54ffff41 	b.ne	2022bc <rt_timer_start+0x7c>  // b.any

    /* insert timer to soft timer list */
    timer_list = rt_soft_timer_list;
  2022d8:	f0000080 	adrp	x0, 215000 <__data_start__>
  2022dc:	91096000 	add	x0, x0, #0x258
  2022e0:	f90023a0 	str	x0, [x29, #64]

    row_head[0]  = &timer_list[0];
  2022e4:	f94023a0 	ldr	x0, [x29, #64]
  2022e8:	f90017a0 	str	x0, [x29, #40]
    for (row_lvl = 0; row_lvl < RT_TIMER_SKIP_LIST_LEVEL; row_lvl++)
  2022ec:	b9004fbf 	str	wzr, [x29, #76]
  2022f0:	14000045 	b	202404 <rt_timer_start+0x1c4>
    {
        for (; row_head[row_lvl] != timer_list[row_lvl].prev;
             row_head[row_lvl]  = row_head[row_lvl]->next)
        {
            struct rt_timer *t;
            rt_list_t *p = row_head[row_lvl]->next;
  2022f4:	b9404fa0 	ldr	w0, [x29, #76]
  2022f8:	d37df000 	lsl	x0, x0, #3
  2022fc:	9100a3a1 	add	x1, x29, #0x28
  202300:	f8606820 	ldr	x0, [x1, x0]
  202304:	f9400000 	ldr	x0, [x0]
  202308:	f9001fa0 	str	x0, [x29, #56]

            /* fix up the entry pointer */
            t = rt_list_entry(p, struct rt_timer, row[row_lvl]);
  20230c:	b9404fa0 	ldr	w0, [x29, #76]
  202310:	d37cec00 	lsl	x0, x0, #4
  202314:	91008000 	add	x0, x0, #0x20
  202318:	cb0003e0 	neg	x0, x0
  20231c:	f9401fa1 	ldr	x1, [x29, #56]
  202320:	8b000020 	add	x0, x1, x0
  202324:	f9001ba0 	str	x0, [x29, #48]
            /* If we have two timers that timeout at the same time, it's
             * preferred that the timer inserted early get called early.
             * So insert the new timer to the end the the some-timeout timer
             * list.
             */
            if ((t->timeout_tick - timer->timeout_tick) == 0)
  202328:	f9401ba0 	ldr	x0, [x29, #48]
  20232c:	b9404401 	ldr	w1, [x0, #68]
  202330:	f9400fa0 	ldr	x0, [x29, #24]
  202334:	b9404400 	ldr	w0, [x0, #68]
  202338:	6b00003f 	cmp	w1, w0
  20233c:	54000140 	b.eq	202364 <rt_timer_start+0x124>  // b.none
            {
                continue;
            }
            else if ((t->timeout_tick - timer->timeout_tick) < RT_TICK_MAX / 2)
  202340:	f9401ba0 	ldr	x0, [x29, #48]
  202344:	b9404401 	ldr	w1, [x0, #68]
  202348:	f9400fa0 	ldr	x0, [x29, #24]
  20234c:	b9404400 	ldr	w0, [x0, #68]
  202350:	4b000021 	sub	w1, w1, w0
  202354:	321f77e0 	mov	w0, #0x7ffffffe            	// #2147483646
  202358:	6b00003f 	cmp	w1, w0
  20235c:	54000309 	b.ls	2023bc <rt_timer_start+0x17c>  // b.plast
  202360:	14000002 	b	202368 <rt_timer_start+0x128>
                continue;
  202364:	d503201f 	nop
             row_head[row_lvl]  = row_head[row_lvl]->next)
  202368:	b9404fa0 	ldr	w0, [x29, #76]
  20236c:	d37df000 	lsl	x0, x0, #3
  202370:	9100a3a1 	add	x1, x29, #0x28
  202374:	f8606820 	ldr	x0, [x1, x0]
  202378:	f9400002 	ldr	x2, [x0]
  20237c:	b9404fa0 	ldr	w0, [x29, #76]
  202380:	d37df000 	lsl	x0, x0, #3
  202384:	9100a3a1 	add	x1, x29, #0x28
  202388:	f8206822 	str	x2, [x1, x0]
        for (; row_head[row_lvl] != timer_list[row_lvl].prev;
  20238c:	b9404fa0 	ldr	w0, [x29, #76]
  202390:	d37df000 	lsl	x0, x0, #3
  202394:	9100a3a1 	add	x1, x29, #0x28
  202398:	f8606821 	ldr	x1, [x1, x0]
  20239c:	b9404fa0 	ldr	w0, [x29, #76]
  2023a0:	d37cec00 	lsl	x0, x0, #4
  2023a4:	f94023a2 	ldr	x2, [x29, #64]
  2023a8:	8b000040 	add	x0, x2, x0
  2023ac:	f9400400 	ldr	x0, [x0, #8]
  2023b0:	eb00003f 	cmp	x1, x0
  2023b4:	54fffa01 	b.ne	2022f4 <rt_timer_start+0xb4>  // b.any
  2023b8:	14000002 	b	2023c0 <rt_timer_start+0x180>
            {
                break;
  2023bc:	d503201f 	nop
            }
        }
        if (row_lvl != RT_TIMER_SKIP_LIST_LEVEL - 1)
  2023c0:	b9404fa0 	ldr	w0, [x29, #76]
  2023c4:	7100001f 	cmp	w0, #0x0
  2023c8:	54000180 	b.eq	2023f8 <rt_timer_start+0x1b8>  // b.none
            row_head[row_lvl + 1] = row_head[row_lvl] + 1;
  2023cc:	b9404fa0 	ldr	w0, [x29, #76]
  2023d0:	d37df000 	lsl	x0, x0, #3
  2023d4:	9100a3a1 	add	x1, x29, #0x28
  2023d8:	f8606820 	ldr	x0, [x1, x0]
  2023dc:	b9404fa1 	ldr	w1, [x29, #76]
  2023e0:	11000421 	add	w1, w1, #0x1
  2023e4:	91004002 	add	x2, x0, #0x10
  2023e8:	2a0103e0 	mov	w0, w1
  2023ec:	d37df000 	lsl	x0, x0, #3
  2023f0:	9100a3a1 	add	x1, x29, #0x28
  2023f4:	f8206822 	str	x2, [x1, x0]
    for (row_lvl = 0; row_lvl < RT_TIMER_SKIP_LIST_LEVEL; row_lvl++)
  2023f8:	b9404fa0 	ldr	w0, [x29, #76]
  2023fc:	11000400 	add	w0, w0, #0x1
  202400:	b9004fa0 	str	w0, [x29, #76]
  202404:	b9404fa0 	ldr	w0, [x29, #76]
  202408:	7100001f 	cmp	w0, #0x0
  20240c:	54fffc00 	b.eq	20238c <rt_timer_start+0x14c>  // b.none

    /* Interestingly, this super simple timer insert counter works very very
     * well on distributing the list height uniformly. By means of "very very
     * well", I mean it beats the randomness of timer->timeout_tick very easily
     * (actually, the timeout_tick is not random and easy to be attacked). */
    random_nr++;
  202410:	f0000080 	adrp	x0, 215000 <__data_start__>
  202414:	9109a000 	add	x0, x0, #0x268
  202418:	b9400000 	ldr	w0, [x0]
  20241c:	11000401 	add	w1, w0, #0x1
  202420:	f0000080 	adrp	x0, 215000 <__data_start__>
  202424:	9109a000 	add	x0, x0, #0x268
  202428:	b9000001 	str	w1, [x0]
    tst_nr = random_nr;
  20242c:	f0000080 	adrp	x0, 215000 <__data_start__>
  202430:	9109a000 	add	x0, x0, #0x268
  202434:	b9400000 	ldr	w0, [x0]
  202438:	b9004ba0 	str	w0, [x29, #72]

    rt_list_insert_after(row_head[RT_TIMER_SKIP_LIST_LEVEL - 1],
  20243c:	f94017a2 	ldr	x2, [x29, #40]
  202440:	f9400fa0 	ldr	x0, [x29, #24]
  202444:	91008000 	add	x0, x0, #0x20
  202448:	aa0003e1 	mov	x1, x0
  20244c:	aa0203e0 	mov	x0, x2
  202450:	97fffea4 	bl	201ee0 <rt_list_insert_after>
                         &(timer->row[RT_TIMER_SKIP_LIST_LEVEL - 1]));
    for (row_lvl = 2; row_lvl <= RT_TIMER_SKIP_LIST_LEVEL; row_lvl++)
  202454:	52800040 	mov	w0, #0x2                   	// #2
  202458:	b9004fa0 	str	w0, [x29, #76]
  20245c:	1400001d 	b	2024d0 <rt_timer_start+0x290>
    {
        if (!(tst_nr & RT_TIMER_SKIP_LIST_MASK))
  202460:	b9404ba0 	ldr	w0, [x29, #72]
  202464:	12000400 	and	w0, w0, #0x3
  202468:	7100001f 	cmp	w0, #0x0
  20246c:	540003a1 	b.ne	2024e0 <rt_timer_start+0x2a0>  // b.any
            rt_list_insert_after(row_head[RT_TIMER_SKIP_LIST_LEVEL - row_lvl],
  202470:	52800021 	mov	w1, #0x1                   	// #1
  202474:	b9404fa0 	ldr	w0, [x29, #76]
  202478:	4b000020 	sub	w0, w1, w0
  20247c:	2a0003e0 	mov	w0, w0
  202480:	d37df000 	lsl	x0, x0, #3
  202484:	9100a3a1 	add	x1, x29, #0x28
  202488:	f8606822 	ldr	x2, [x1, x0]
                                 &(timer->row[RT_TIMER_SKIP_LIST_LEVEL - row_lvl]));
  20248c:	52800021 	mov	w1, #0x1                   	// #1
  202490:	b9404fa0 	ldr	w0, [x29, #76]
  202494:	4b000020 	sub	w0, w1, w0
            rt_list_insert_after(row_head[RT_TIMER_SKIP_LIST_LEVEL - row_lvl],
  202498:	2a0003e0 	mov	w0, w0
  20249c:	91000800 	add	x0, x0, #0x2
  2024a0:	d37cec00 	lsl	x0, x0, #4
  2024a4:	f9400fa1 	ldr	x1, [x29, #24]
  2024a8:	8b000020 	add	x0, x1, x0
  2024ac:	aa0003e1 	mov	x1, x0
  2024b0:	aa0203e0 	mov	x0, x2
  2024b4:	97fffe8b 	bl	201ee0 <rt_list_insert_after>
        else
            break;
        /* Shift over the bits we have tested. Works well with 1 bit and 2
         * bits. */
        tst_nr >>= (RT_TIMER_SKIP_LIST_MASK + 1) >> 1;
  2024b8:	b9404ba0 	ldr	w0, [x29, #72]
  2024bc:	53027c00 	lsr	w0, w0, #2
  2024c0:	b9004ba0 	str	w0, [x29, #72]
    for (row_lvl = 2; row_lvl <= RT_TIMER_SKIP_LIST_LEVEL; row_lvl++)
  2024c4:	b9404fa0 	ldr	w0, [x29, #76]
  2024c8:	11000400 	add	w0, w0, #0x1
  2024cc:	b9004fa0 	str	w0, [x29, #76]
  2024d0:	b9404fa0 	ldr	w0, [x29, #76]
  2024d4:	7100041f 	cmp	w0, #0x1
  2024d8:	54fffc49 	b.ls	202460 <rt_timer_start+0x220>  // b.plast
  2024dc:	14000002 	b	2024e4 <rt_timer_start+0x2a4>
            break;
  2024e0:	d503201f 	nop
    }

    timer->parent.flag |= RT_TIMER_FLAG_ACTIVATED;
  2024e4:	f9400fa0 	ldr	x0, [x29, #24]
  2024e8:	39402400 	ldrb	w0, [x0, #9]
  2024ec:	32000000 	orr	w0, w0, #0x1
  2024f0:	12001c01 	and	w1, w0, #0xff
  2024f4:	f9400fa0 	ldr	x0, [x29, #24]
  2024f8:	39002401 	strb	w1, [x0, #9]

    /* release mutex */
    rt_mutex_release(mutex);
  2024fc:	f0000080 	adrp	x0, 215000 <__data_start__>
  202500:	91092000 	add	x0, x0, #0x248
  202504:	f9400000 	ldr	x0, [x0]
  202508:	97fffa1e 	bl	200d80 <rt_mutex_release>

    /* update hardware timer */
    rt_hw_timer_update();
  20250c:	940000c8 	bl	20282c <rt_hw_timer_update>

    return RT_EOK;
  202510:	d2800000 	mov	x0, #0x0                   	// #0
}
  202514:	a8c57bfd 	ldp	x29, x30, [sp], #80
  202518:	d65f03c0 	ret

000000000020251c <rt_timer_stop>:
 * @param timer the timer to be stopped
 *
 * @return the operation status, RT_EOK on OK, -RT_ERROR on error
 */
rt_err_t rt_timer_stop(rt_timer_t timer)
{
  20251c:	a9be7bfd 	stp	x29, x30, [sp, #-32]!
  202520:	910003fd 	mov	x29, sp
  202524:	f9000fa0 	str	x0, [x29, #24]
    if (!(timer->parent.flag & RT_TIMER_FLAG_ACTIVATED))
  202528:	f9400fa0 	ldr	x0, [x29, #24]
  20252c:	39402400 	ldrb	w0, [x0, #9]
  202530:	12000000 	and	w0, w0, #0x1
  202534:	7100001f 	cmp	w0, #0x0
  202538:	54000061 	b.ne	202544 <rt_timer_stop+0x28>  // b.any
        return -RT_ERROR;
  20253c:	92800000 	mov	x0, #0xffffffffffffffff    	// #-1
  202540:	14000016 	b	202598 <rt_timer_stop+0x7c>

    /* make sure take mutex */
    while(rt_mutex_take(mutex, RT_WAITING_FOREVER) != RT_EOK);
  202544:	d503201f 	nop
  202548:	f0000080 	adrp	x0, 215000 <__data_start__>
  20254c:	91092000 	add	x0, x0, #0x248
  202550:	f9400000 	ldr	x0, [x0]
  202554:	12800001 	mov	w1, #0xffffffff            	// #-1
  202558:	97fff9ef 	bl	200d14 <rt_mutex_take>
  20255c:	f100001f 	cmp	x0, #0x0
  202560:	54ffff41 	b.ne	202548 <rt_timer_stop+0x2c>  // b.any

    _rt_timer_remove(timer);
  202564:	f9400fa0 	ldr	x0, [x29, #24]
  202568:	97fffecf 	bl	2020a4 <_rt_timer_remove>

    /* release mutex */
    rt_mutex_release(mutex);
  20256c:	f0000080 	adrp	x0, 215000 <__data_start__>
  202570:	91092000 	add	x0, x0, #0x248
  202574:	f9400000 	ldr	x0, [x0]
  202578:	97fffa02 	bl	200d80 <rt_mutex_release>

    /* change stat */
    timer->parent.flag &= ~RT_TIMER_FLAG_ACTIVATED;
  20257c:	f9400fa0 	ldr	x0, [x29, #24]
  202580:	39402400 	ldrb	w0, [x0, #9]
  202584:	121f7800 	and	w0, w0, #0xfffffffe
  202588:	12001c01 	and	w1, w0, #0xff
  20258c:	f9400fa0 	ldr	x0, [x29, #24]
  202590:	39002401 	strb	w1, [x0, #9]

    return RT_EOK;
  202594:	d2800000 	mov	x0, #0x0                   	// #0
}
  202598:	a8c27bfd 	ldp	x29, x30, [sp], #32
  20259c:	d65f03c0 	ret

00000000002025a0 <rt_timer_control>:
 * @param arg the argument
 *
 * @return RT_EOK
 */
rt_err_t rt_timer_control(rt_timer_t timer, int cmd, void *arg)
{
  2025a0:	d10083ff 	sub	sp, sp, #0x20
  2025a4:	f9000fe0 	str	x0, [sp, #24]
  2025a8:	b90017e1 	str	w1, [sp, #20]
  2025ac:	f90007e2 	str	x2, [sp, #8]
    switch (cmd)
  2025b0:	b94017e0 	ldr	w0, [sp, #20]
  2025b4:	71000c1f 	cmp	w0, #0x3
  2025b8:	540004e0 	b.eq	202654 <rt_timer_control+0xb4>  // b.none
  2025bc:	71000c1f 	cmp	w0, #0x3
  2025c0:	5400010c 	b.gt	2025e0 <rt_timer_control+0x40>
  2025c4:	7100041f 	cmp	w0, #0x1
  2025c8:	54000240 	b.eq	202610 <rt_timer_control+0x70>  // b.none
  2025cc:	7100041f 	cmp	w0, #0x1
  2025d0:	5400034c 	b.gt	202638 <rt_timer_control+0x98>
  2025d4:	7100001f 	cmp	w0, #0x0
  2025d8:	54000260 	b.eq	202624 <rt_timer_control+0x84>  // b.none
  2025dc:	14000037 	b	2026b8 <rt_timer_control+0x118>
  2025e0:	7100181f 	cmp	w0, #0x6
  2025e4:	54000500 	b.eq	202684 <rt_timer_control+0xe4>  // b.none
  2025e8:	7100181f 	cmp	w0, #0x6
  2025ec:	5400008c 	b.gt	2025fc <rt_timer_control+0x5c>
  2025f0:	7100141f 	cmp	w0, #0x5
  2025f4:	540003e0 	b.eq	202670 <rt_timer_control+0xd0>  // b.none
  2025f8:	14000030 	b	2026b8 <rt_timer_control+0x118>
  2025fc:	71001c1f 	cmp	w0, #0x7
  202600:	540004a0 	b.eq	202694 <rt_timer_control+0xf4>  // b.none
  202604:	7100201f 	cmp	w0, #0x8
  202608:	54000500 	b.eq	2026a8 <rt_timer_control+0x108>  // b.none
  20260c:	1400002b 	b	2026b8 <rt_timer_control+0x118>
    {
    case RT_TIMER_CTRL_GET_TIME:
        *(rt_tick_t *)arg = timer->init_tick;
  202610:	f9400fe0 	ldr	x0, [sp, #24]
  202614:	b9404001 	ldr	w1, [x0, #64]
  202618:	f94007e0 	ldr	x0, [sp, #8]
  20261c:	b9000001 	str	w1, [x0]
        break;
  202620:	14000026 	b	2026b8 <rt_timer_control+0x118>

    case RT_TIMER_CTRL_SET_TIME:
        timer->init_tick = *(rt_tick_t *)arg;
  202624:	f94007e0 	ldr	x0, [sp, #8]
  202628:	b9400001 	ldr	w1, [x0]
  20262c:	f9400fe0 	ldr	x0, [sp, #24]
  202630:	b9004001 	str	w1, [x0, #64]
        break;
  202634:	14000021 	b	2026b8 <rt_timer_control+0x118>

    case RT_TIMER_CTRL_SET_ONESHOT:
        timer->parent.flag &= ~RT_TIMER_FLAG_PERIODIC;
  202638:	f9400fe0 	ldr	x0, [sp, #24]
  20263c:	39402400 	ldrb	w0, [x0, #9]
  202640:	121e7800 	and	w0, w0, #0xfffffffd
  202644:	12001c01 	and	w1, w0, #0xff
  202648:	f9400fe0 	ldr	x0, [sp, #24]
  20264c:	39002401 	strb	w1, [x0, #9]
        break;
  202650:	1400001a 	b	2026b8 <rt_timer_control+0x118>

    case RT_TIMER_CTRL_SET_PERIODIC:
        timer->parent.flag |= RT_TIMER_FLAG_PERIODIC;
  202654:	f9400fe0 	ldr	x0, [sp, #24]
  202658:	39402400 	ldrb	w0, [x0, #9]
  20265c:	321f0000 	orr	w0, w0, #0x2
  202660:	12001c01 	and	w1, w0, #0xff
  202664:	f9400fe0 	ldr	x0, [sp, #24]
  202668:	39002401 	strb	w1, [x0, #9]
        break;
  20266c:	14000013 	b	2026b8 <rt_timer_control+0x118>

    case RT_TIMER_CTRL_GET_FUNC:
        *(void **)arg = timer->timeout_func;
  202670:	f9400fe0 	ldr	x0, [sp, #24]
  202674:	f9401801 	ldr	x1, [x0, #48]
  202678:	f94007e0 	ldr	x0, [sp, #8]
  20267c:	f9000001 	str	x1, [x0]
        break;
  202680:	1400000e 	b	2026b8 <rt_timer_control+0x118>

    case RT_TIMER_CTRL_SET_FUNC:
        timer->timeout_func = (void (*)(void*))arg;
  202684:	f94007e1 	ldr	x1, [sp, #8]
  202688:	f9400fe0 	ldr	x0, [sp, #24]
  20268c:	f9001801 	str	x1, [x0, #48]
        break;
  202690:	1400000a 	b	2026b8 <rt_timer_control+0x118>

    case RT_TIMER_CTRL_GET_PARM:
        *(void **)arg = timer->parameter;
  202694:	f9400fe0 	ldr	x0, [sp, #24]
  202698:	f9401c01 	ldr	x1, [x0, #56]
  20269c:	f94007e0 	ldr	x0, [sp, #8]
  2026a0:	f9000001 	str	x1, [x0]
        break;
  2026a4:	14000005 	b	2026b8 <rt_timer_control+0x118>

    case RT_TIMER_CTRL_SET_PARM:
        timer->parameter = arg;
  2026a8:	f9400fe0 	ldr	x0, [sp, #24]
  2026ac:	f94007e1 	ldr	x1, [sp, #8]
  2026b0:	f9001c01 	str	x1, [x0, #56]
        break;
  2026b4:	d503201f 	nop
    }

    return RT_EOK;
  2026b8:	d2800000 	mov	x0, #0x0                   	// #0
}
  2026bc:	910083ff 	add	sp, sp, #0x20
  2026c0:	d65f03c0 	ret

00000000002026c4 <rt_soft_timer_check>:
/**
 * This function will check timer list, if a timeout event happens, the
 * corresponding timeout function will be invoked.
 */
void rt_soft_timer_check(void)
{
  2026c4:	a9bd7bfd 	stp	x29, x30, [sp, #-48]!
  2026c8:	910003fd 	mov	x29, sp
    rt_list_t *n;
    struct rt_timer *t;

    RT_DEBUG_LOG(RT_DEBUG_TIMER, ("software timer check enter\n"));

    current_tick = rt_tick_get();
  2026cc:	97fffd12 	bl	201b14 <rt_tick_get>
  2026d0:	b9002fa0 	str	w0, [x29, #44]

    /* make sure take mutex */
    while(rt_mutex_take(mutex, RT_WAITING_FOREVER) != RT_EOK);
  2026d4:	d503201f 	nop
  2026d8:	f0000080 	adrp	x0, 215000 <__data_start__>
  2026dc:	91092000 	add	x0, x0, #0x248
  2026e0:	f9400000 	ldr	x0, [x0]
  2026e4:	12800001 	mov	w1, #0xffffffff            	// #-1
  2026e8:	97fff98b 	bl	200d14 <rt_mutex_take>
  2026ec:	f100001f 	cmp	x0, #0x0
  2026f0:	54ffff41 	b.ne	2026d8 <rt_soft_timer_check+0x14>  // b.any

    for (n = rt_soft_timer_list[RT_TIMER_SKIP_LIST_LEVEL - 1].next;
  2026f4:	f0000080 	adrp	x0, 215000 <__data_start__>
  2026f8:	91096000 	add	x0, x0, #0x258
  2026fc:	f9400000 	ldr	x0, [x0]
  202700:	f90013a0 	str	x0, [x29, #32]
  202704:	1400003c 	b	2027f4 <rt_soft_timer_check+0x130>
         n != &(rt_soft_timer_list[RT_TIMER_SKIP_LIST_LEVEL - 1]);)
    {
        t = rt_list_entry(n, struct rt_timer, row[RT_TIMER_SKIP_LIST_LEVEL - 1]);
  202708:	f94013a0 	ldr	x0, [x29, #32]
  20270c:	d1008000 	sub	x0, x0, #0x20
  202710:	f9000fa0 	str	x0, [x29, #24]

        /*
         * It supposes that the new tick shall less than the half duration of
         * tick max.
         */
        if ((current_tick - t->timeout_tick) < RT_TICK_MAX / 2)
  202714:	f9400fa0 	ldr	x0, [x29, #24]
  202718:	b9404400 	ldr	w0, [x0, #68]
  20271c:	b9402fa1 	ldr	w1, [x29, #44]
  202720:	4b000021 	sub	w1, w1, w0
  202724:	321f77e0 	mov	w0, #0x7ffffffe            	// #2147483646
  202728:	6b00003f 	cmp	w1, w0
  20272c:	54000708 	b.hi	20280c <rt_soft_timer_check+0x148>  // b.pmore
        {
            /* move node to the next */
            n = n->next;
  202730:	f94013a0 	ldr	x0, [x29, #32]
  202734:	f9400000 	ldr	x0, [x0]
  202738:	f90013a0 	str	x0, [x29, #32]

            /* remove timer from timer list firstly */
            _rt_timer_remove(t);
  20273c:	f9400fa0 	ldr	x0, [x29, #24]
  202740:	97fffe59 	bl	2020a4 <_rt_timer_remove>

            /* release mutex */
            rt_mutex_release(mutex);
  202744:	f0000080 	adrp	x0, 215000 <__data_start__>
  202748:	91092000 	add	x0, x0, #0x248
  20274c:	f9400000 	ldr	x0, [x0]
  202750:	97fff98c 	bl	200d80 <rt_mutex_release>
            /* call timeout function */
            t->timeout_func(t->parameter);
  202754:	f9400fa0 	ldr	x0, [x29, #24]
  202758:	f9401801 	ldr	x1, [x0, #48]
  20275c:	f9400fa0 	ldr	x0, [x29, #24]
  202760:	f9401c00 	ldr	x0, [x0, #56]
  202764:	d63f0020 	blr	x1

            /* re-get tick */
            current_tick = rt_tick_get();
  202768:	97fffceb 	bl	201b14 <rt_tick_get>
  20276c:	b9002fa0 	str	w0, [x29, #44]

            RT_DEBUG_LOG(RT_DEBUG_TIMER, ("current tick: %d\n", current_tick));

            /* make sure take mutex */
            while(rt_mutex_take(mutex, RT_WAITING_FOREVER) != RT_EOK);
  202770:	d503201f 	nop
  202774:	f0000080 	adrp	x0, 215000 <__data_start__>
  202778:	91092000 	add	x0, x0, #0x248
  20277c:	f9400000 	ldr	x0, [x0]
  202780:	12800001 	mov	w1, #0xffffffff            	// #-1
  202784:	97fff964 	bl	200d14 <rt_mutex_take>
  202788:	f100001f 	cmp	x0, #0x0
  20278c:	54ffff41 	b.ne	202774 <rt_soft_timer_check+0xb0>  // b.any


            if ((t->parent.flag & RT_TIMER_FLAG_PERIODIC) &&
  202790:	f9400fa0 	ldr	x0, [x29, #24]
  202794:	39402400 	ldrb	w0, [x0, #9]
  202798:	121f0000 	and	w0, w0, #0x2
  20279c:	7100001f 	cmp	w0, #0x0
  2027a0:	540001e0 	b.eq	2027dc <rt_soft_timer_check+0x118>  // b.none
                    (t->parent.flag & RT_TIMER_FLAG_ACTIVATED))
  2027a4:	f9400fa0 	ldr	x0, [x29, #24]
  2027a8:	39402400 	ldrb	w0, [x0, #9]
  2027ac:	12000000 	and	w0, w0, #0x1
            if ((t->parent.flag & RT_TIMER_FLAG_PERIODIC) &&
  2027b0:	7100001f 	cmp	w0, #0x0
  2027b4:	54000140 	b.eq	2027dc <rt_soft_timer_check+0x118>  // b.none
            {
                /* start it */
                t->parent.flag &= ~RT_TIMER_FLAG_ACTIVATED;
  2027b8:	f9400fa0 	ldr	x0, [x29, #24]
  2027bc:	39402400 	ldrb	w0, [x0, #9]
  2027c0:	121f7800 	and	w0, w0, #0xfffffffe
  2027c4:	12001c01 	and	w1, w0, #0xff
  2027c8:	f9400fa0 	ldr	x0, [x29, #24]
  2027cc:	39002401 	strb	w1, [x0, #9]
                rt_timer_start(t);
  2027d0:	f9400fa0 	ldr	x0, [x29, #24]
  2027d4:	97fffe9b 	bl	202240 <rt_timer_start>
  2027d8:	14000007 	b	2027f4 <rt_soft_timer_check+0x130>
            }
            else
            {
                /* stop timer */
                t->parent.flag &= ~RT_TIMER_FLAG_ACTIVATED;
  2027dc:	f9400fa0 	ldr	x0, [x29, #24]
  2027e0:	39402400 	ldrb	w0, [x0, #9]
  2027e4:	121f7800 	and	w0, w0, #0xfffffffe
  2027e8:	12001c01 	and	w1, w0, #0xff
  2027ec:	f9400fa0 	ldr	x0, [x29, #24]
  2027f0:	39002401 	strb	w1, [x0, #9]
    for (n = rt_soft_timer_list[RT_TIMER_SKIP_LIST_LEVEL - 1].next;
  2027f4:	f94013a1 	ldr	x1, [x29, #32]
  2027f8:	f0000080 	adrp	x0, 215000 <__data_start__>
  2027fc:	91096000 	add	x0, x0, #0x258
  202800:	eb00003f 	cmp	x1, x0
  202804:	54fff821 	b.ne	202708 <rt_soft_timer_check+0x44>  // b.any
  202808:	14000002 	b	202810 <rt_soft_timer_check+0x14c>
            }
        }
        else break; /* not check anymore */
  20280c:	d503201f 	nop
    }

    /* release mutex */
    rt_mutex_release(mutex);
  202810:	f0000080 	adrp	x0, 215000 <__data_start__>
  202814:	91092000 	add	x0, x0, #0x248
  202818:	f9400000 	ldr	x0, [x0]
  20281c:	97fff959 	bl	200d80 <rt_mutex_release>

    RT_DEBUG_LOG(RT_DEBUG_TIMER, ("software timer check leave\n"));
}
  202820:	d503201f 	nop
  202824:	a8c37bfd 	ldp	x29, x30, [sp], #48
  202828:	d65f03c0 	ret

000000000020282c <rt_hw_timer_update>:

/* update hardware timer */
static void rt_hw_timer_update(void)
{
  20282c:	a9be7bfd 	stp	x29, x30, [sp, #-32]!
  202830:	910003fd 	mov	x29, sp
    rt_tick_t next_timeout;
    rt_tick_t current_tick;

    /* get the next timeout tick */
    next_timeout = rt_timer_list_next_timeout(rt_soft_timer_list);
  202834:	f0000080 	adrp	x0, 215000 <__data_start__>
  202838:	91096000 	add	x0, x0, #0x258
  20283c:	97fffe09 	bl	202060 <rt_timer_list_next_timeout>
  202840:	b9001ba0 	str	w0, [x29, #24]
    if (next_timeout == RT_TICK_MAX)
  202844:	b9401ba0 	ldr	w0, [x29, #24]
  202848:	3100041f 	cmn	w0, #0x1
  20284c:	54000480 	b.eq	2028dc <rt_hw_timer_update+0xb0>  // b.none
        /* no software timer exist, return. */
        return;
    }

    /* get current tick */
    current_tick = rt_tick_get();
  202850:	97fffcb1 	bl	201b14 <rt_tick_get>
  202854:	b9001fa0 	str	w0, [x29, #28]

    if ((next_timeout - current_tick) < RT_TICK_MAX / 2)
  202858:	b9401ba1 	ldr	w1, [x29, #24]
  20285c:	b9401fa0 	ldr	w0, [x29, #28]
  202860:	4b000021 	sub	w1, w1, w0
  202864:	321f77e0 	mov	w0, #0x7ffffffe            	// #2147483646
  202868:	6b00003f 	cmp	w1, w0
  20286c:	540003c8 	b.hi	2028e4 <rt_hw_timer_update+0xb8>  // b.pmore
    {
        syscall(_NRSYS_rt_timer_stop, hw_timer);
  202870:	f0000080 	adrp	x0, 215000 <__data_start__>
  202874:	91090000 	add	x0, x0, #0x240
  202878:	f9400000 	ldr	x0, [x0]
  20287c:	aa0003e1 	mov	x1, x0
  202880:	52800e40 	mov	w0, #0x72                  	// #114
  202884:	94000406 	bl	20389c <syscall>
        /* get the delta timeout tick */
        next_timeout = next_timeout - current_tick;
  202888:	b9401ba1 	ldr	w1, [x29, #24]
  20288c:	b9401fa0 	ldr	w0, [x29, #28]
  202890:	4b000020 	sub	w0, w1, w0
  202894:	b9001ba0 	str	w0, [x29, #24]
        syscall(_NRSYS_rt_timer_control,
  202898:	f0000080 	adrp	x0, 215000 <__data_start__>
  20289c:	91090000 	add	x0, x0, #0x240
  2028a0:	f9400000 	ldr	x0, [x0]
  2028a4:	910063a1 	add	x1, x29, #0x18
  2028a8:	aa0103e3 	mov	x3, x1
  2028ac:	52800002 	mov	w2, #0x0                   	// #0
  2028b0:	aa0003e1 	mov	x1, x0
  2028b4:	52800e60 	mov	w0, #0x73                  	// #115
  2028b8:	940003f9 	bl	20389c <syscall>
                hw_timer,
                RT_TIMER_CTRL_SET_TIME,
                &next_timeout);
        syscall(_NRSYS_rt_timer_start, hw_timer);
  2028bc:	f0000080 	adrp	x0, 215000 <__data_start__>
  2028c0:	91090000 	add	x0, x0, #0x240
  2028c4:	f9400000 	ldr	x0, [x0]
  2028c8:	aa0003e1 	mov	x1, x0
  2028cc:	52800e20 	mov	w0, #0x71                  	// #113
  2028d0:	940003f3 	bl	20389c <syscall>
    }
    return;
  2028d4:	d503201f 	nop
  2028d8:	14000003 	b	2028e4 <rt_hw_timer_update+0xb8>
        return;
  2028dc:	d503201f 	nop
  2028e0:	14000002 	b	2028e8 <rt_hw_timer_update+0xbc>
    return;
  2028e4:	d503201f 	nop
}
  2028e8:	a8c27bfd 	ldp	x29, x30, [sp], #32
  2028ec:	d65f03c0 	ret

00000000002028f0 <rt_thread_timer_handler>:

/* timer signal handler */
static void rt_thread_timer_handler(void)
{
  2028f0:	a9bf7bfd 	stp	x29, x30, [sp, #-16]!
  2028f4:	910003fd 	mov	x29, sp
    /* update hardware timer */
    rt_hw_timer_update();
  2028f8:	97ffffcd 	bl	20282c <rt_hw_timer_update>
    /* check software timer */
    rt_soft_timer_check();
  2028fc:	97ffff72 	bl	2026c4 <rt_soft_timer_check>
}
  202900:	d503201f 	nop
  202904:	a8c17bfd 	ldp	x29, x30, [sp], #16
  202908:	d65f03c0 	ret

000000000020290c <timer_thread_entry>:

static void timer_thread_entry(void* parameter)
{
  20290c:	a9bd7bfd 	stp	x29, x30, [sp, #-48]!
  202910:	910003fd 	mov	x29, sp
  202914:	f9000fa0 	str	x0, [x29, #24]
    while (1)
    {
        rt_err_t ret;
        ret = rt_sem_take(sem, RT_WAITING_FOREVER);
  202918:	f0000080 	adrp	x0, 215000 <__data_start__>
  20291c:	91094000 	add	x0, x0, #0x250
  202920:	f9400000 	ldr	x0, [x0]
  202924:	12800001 	mov	w1, #0xffffffff            	// #-1
  202928:	97fff9d2 	bl	201070 <rt_sem_take>
  20292c:	f90017a0 	str	x0, [x29, #40]
        if (ret != RT_EOK)
  202930:	f94017a0 	ldr	x0, [x29, #40]
  202934:	f100001f 	cmp	x0, #0x0
  202938:	54000061 	b.ne	202944 <timer_thread_entry+0x38>  // b.any
        {
            break;
        }
        rt_thread_timer_handler();
  20293c:	97ffffed 	bl	2028f0 <rt_thread_timer_handler>
    {
  202940:	17fffff6 	b	202918 <timer_thread_entry+0xc>
            break;
  202944:	d503201f 	nop
    }
}
  202948:	d503201f 	nop
  20294c:	a8c37bfd 	ldp	x29, x30, [sp], #48
  202950:	d65f03c0 	ret

0000000000202954 <rt_system_timer_init>:

void rt_system_timer_init(rt_uint32_t timer_stack_size)
{
  202954:	a9bd7bfd 	stp	x29, x30, [sp, #-48]!
  202958:	910003fd 	mov	x29, sp
  20295c:	b9001fa0 	str	w0, [x29, #28]
    int i;
    rt_thread_t tid;

    if (!sem)
  202960:	f0000080 	adrp	x0, 215000 <__data_start__>
  202964:	91094000 	add	x0, x0, #0x250
  202968:	f9400000 	ldr	x0, [x0]
  20296c:	f100001f 	cmp	x0, #0x0
  202970:	54000141 	b.ne	202998 <rt_system_timer_init+0x44>  // b.any
    {
        sem = rt_sem_create("u_timer", 0, RT_IPC_FLAG_FIFO);
  202974:	f0000060 	adrp	x0, 211000 <__subtf3+0x7d0>
  202978:	91286000 	add	x0, x0, #0xa18
  20297c:	52800002 	mov	w2, #0x0                   	// #0
  202980:	52800001 	mov	w1, #0x0                   	// #0
  202984:	97fff918 	bl	200de4 <rt_sem_create>
  202988:	aa0003e1 	mov	x1, x0
  20298c:	f0000080 	adrp	x0, 215000 <__data_start__>
  202990:	91094000 	add	x0, x0, #0x250
  202994:	f9000001 	str	x1, [x0]
    }

    if (!mutex)
  202998:	f0000080 	adrp	x0, 215000 <__data_start__>
  20299c:	91092000 	add	x0, x0, #0x248
  2029a0:	f9400000 	ldr	x0, [x0]
  2029a4:	f100001f 	cmp	x0, #0x0
  2029a8:	54000121 	b.ne	2029cc <rt_system_timer_init+0x78>  // b.any
    {
        mutex = rt_mutex_create("utm_mutex", RT_IPC_FLAG_FIFO);
  2029ac:	f0000060 	adrp	x0, 211000 <__subtf3+0x7d0>
  2029b0:	91288000 	add	x0, x0, #0xa20
  2029b4:	52800001 	mov	w1, #0x0                   	// #0
  2029b8:	97fff851 	bl	200afc <rt_mutex_create>
  2029bc:	aa0003e1 	mov	x1, x0
  2029c0:	f0000080 	adrp	x0, 215000 <__data_start__>
  2029c4:	91092000 	add	x0, x0, #0x248
  2029c8:	f9000001 	str	x1, [x0]
    }

    for (i = 0;
  2029cc:	b9002fbf 	str	wzr, [x29, #44]
  2029d0:	1400000a 	b	2029f8 <rt_system_timer_init+0xa4>
         i < sizeof(rt_soft_timer_list) / sizeof(rt_soft_timer_list[0]);
         i++)
    {
        rt_list_init(rt_soft_timer_list + i);
  2029d4:	b9802fa0 	ldrsw	x0, [x29, #44]
  2029d8:	d37cec01 	lsl	x1, x0, #4
  2029dc:	f0000080 	adrp	x0, 215000 <__data_start__>
  2029e0:	91096000 	add	x0, x0, #0x258
  2029e4:	8b000020 	add	x0, x1, x0
  2029e8:	97fffd32 	bl	201eb0 <rt_list_init>
         i++)
  2029ec:	b9402fa0 	ldr	w0, [x29, #44]
  2029f0:	11000400 	add	w0, w0, #0x1
  2029f4:	b9002fa0 	str	w0, [x29, #44]
    for (i = 0;
  2029f8:	b9402fa0 	ldr	w0, [x29, #44]
  2029fc:	7100001f 	cmp	w0, #0x0
  202a00:	54fffea0 	b.eq	2029d4 <rt_system_timer_init+0x80>  // b.none
    }

    /* initial hardware timer */
    if (!hw_timer)
  202a04:	f0000080 	adrp	x0, 215000 <__data_start__>
  202a08:	91090000 	add	x0, x0, #0x240
  202a0c:	f9400000 	ldr	x0, [x0]
  202a10:	f100001f 	cmp	x0, #0x0
  202a14:	54000221 	b.ne	202a58 <rt_system_timer_init+0x104>  // b.any
    {
        hw_timer = (rt_timer_t)syscall(_NRSYS_rt_timer_create,
                "u_timer",
                sem->data, //SIG_HW_TIMER,
  202a18:	f0000080 	adrp	x0, 215000 <__data_start__>
  202a1c:	91094000 	add	x0, x0, #0x250
  202a20:	f9400000 	ldr	x0, [x0]
        hw_timer = (rt_timer_t)syscall(_NRSYS_rt_timer_create,
  202a24:	f9400401 	ldr	x1, [x0, #8]
  202a28:	f0000060 	adrp	x0, 211000 <__subtf3+0x7d0>
  202a2c:	91286000 	add	x0, x0, #0xa18
  202a30:	52800004 	mov	w4, #0x0                   	// #0
  202a34:	52800003 	mov	w3, #0x0                   	// #0
  202a38:	aa0103e2 	mov	x2, x1
  202a3c:	aa0003e1 	mov	x1, x0
  202a40:	52800de0 	mov	w0, #0x6f                  	// #111
  202a44:	94000396 	bl	20389c <syscall>
  202a48:	aa0003e1 	mov	x1, x0
  202a4c:	f0000080 	adrp	x0, 215000 <__data_start__>
  202a50:	91090000 	add	x0, x0, #0x240
  202a54:	f9000001 	str	x1, [x0]
                0,
                RT_TIMER_FLAG_ONE_SHOT|RT_TIMER_FLAG_HARD_TIMER);
    }

    if (timer_stack_size < 4096)
  202a58:	b9401fa0 	ldr	w0, [x29, #28]
  202a5c:	713ffc1f 	cmp	w0, #0xfff
  202a60:	54000068 	b.hi	202a6c <rt_system_timer_init+0x118>  // b.pmore
    {
        timer_stack_size = 4096;
  202a64:	52820000 	mov	w0, #0x1000                	// #4096
  202a68:	b9001fa0 	str	w0, [x29, #28]
    }

    tid = rt_thread_create("u_timer", timer_thread_entry, RT_NULL,
  202a6c:	90000000 	adrp	x0, 202000 <_rt_timer_init+0x50>
  202a70:	91243001 	add	x1, x0, #0x90c
  202a74:	f0000060 	adrp	x0, 211000 <__subtf3+0x7d0>
  202a78:	91286000 	add	x0, x0, #0xa18
  202a7c:	52800145 	mov	w5, #0xa                   	// #10
  202a80:	52800044 	mov	w4, #0x2                   	// #2
  202a84:	b9401fa3 	ldr	w3, [x29, #28]
  202a88:	d2800002 	mov	x2, #0x0                   	// #0
  202a8c:	97fffca5 	bl	201d20 <rt_thread_create>
  202a90:	f90013a0 	str	x0, [x29, #32]
            timer_stack_size, 2, 10);
    if (tid)
  202a94:	f94013a0 	ldr	x0, [x29, #32]
  202a98:	f100001f 	cmp	x0, #0x0
  202a9c:	54000060 	b.eq	202aa8 <rt_system_timer_init+0x154>  // b.none
    {
        rt_thread_startup(tid);
  202aa0:	f94013a0 	ldr	x0, [x29, #32]
  202aa4:	97fffcd3 	bl	201df0 <rt_thread_startup>
    }
}
  202aa8:	d503201f 	nop
  202aac:	a8c37bfd 	ldp	x29, x30, [sp], #48
  202ab0:	d65f03c0 	ret

0000000000202ab4 <rt_malloc>:
#include <stdarg.h>

#include <rtthread.h>

void *rt_malloc(rt_size_t nbytes)
{
  202ab4:	a9be7bfd 	stp	x29, x30, [sp, #-32]!
  202ab8:	910003fd 	mov	x29, sp
  202abc:	f9000fa0 	str	x0, [x29, #24]
    return malloc(nbytes);
  202ac0:	f9400fa0 	ldr	x0, [x29, #24]
  202ac4:	94001181 	bl	2070c8 <malloc>
}
  202ac8:	a8c27bfd 	ldp	x29, x30, [sp], #32
  202acc:	d65f03c0 	ret

0000000000202ad0 <rt_free>:

void rt_free(void *ptr)
{
  202ad0:	a9be7bfd 	stp	x29, x30, [sp, #-32]!
  202ad4:	910003fd 	mov	x29, sp
  202ad8:	f9000fa0 	str	x0, [x29, #24]
    return free(ptr);
  202adc:	f9400fa0 	ldr	x0, [x29, #24]
  202ae0:	94001310 	bl	207720 <free>
}
  202ae4:	a8c27bfd 	ldp	x29, x30, [sp], #32
  202ae8:	d65f03c0 	ret

0000000000202aec <rt_realloc>:

void *rt_realloc(void *ptr, rt_size_t nbytes)
{
  202aec:	a9be7bfd 	stp	x29, x30, [sp, #-32]!
  202af0:	910003fd 	mov	x29, sp
  202af4:	f9000fa0 	str	x0, [x29, #24]
  202af8:	f9000ba1 	str	x1, [x29, #16]
    return realloc(ptr, nbytes);
  202afc:	f9400ba1 	ldr	x1, [x29, #16]
  202b00:	f9400fa0 	ldr	x0, [x29, #24]
  202b04:	9400131b 	bl	207770 <realloc>
}
  202b08:	a8c27bfd 	ldp	x29, x30, [sp], #32
  202b0c:	d65f03c0 	ret

0000000000202b10 <rt_calloc>:

void *rt_calloc(rt_size_t count, rt_size_t size)
{
  202b10:	a9be7bfd 	stp	x29, x30, [sp, #-32]!
  202b14:	910003fd 	mov	x29, sp
  202b18:	f9000fa0 	str	x0, [x29, #24]
  202b1c:	f9000ba1 	str	x1, [x29, #16]
    return calloc(count, size);
  202b20:	f9400ba1 	ldr	x1, [x29, #16]
  202b24:	f9400fa0 	ldr	x0, [x29, #24]
  202b28:	940012c2 	bl	207630 <calloc>
}
  202b2c:	a8c27bfd 	ldp	x29, x30, [sp], #32
  202b30:	d65f03c0 	ret

0000000000202b34 <rt_snprintf>:

rt_int32_t rt_snprintf(char *buf, rt_size_t size, const char *format, ...)
{
  202b34:	a9ad7bfd 	stp	x29, x30, [sp, #-304]!
  202b38:	910003fd 	mov	x29, sp
  202b3c:	f90027a0 	str	x0, [x29, #72]
  202b40:	f90023a1 	str	x1, [x29, #64]
  202b44:	f9001fa2 	str	x2, [x29, #56]
  202b48:	f90087a3 	str	x3, [x29, #264]
  202b4c:	f9008ba4 	str	x4, [x29, #272]
  202b50:	f9008fa5 	str	x5, [x29, #280]
  202b54:	f90093a6 	str	x6, [x29, #288]
  202b58:	f90097a7 	str	x7, [x29, #296]
  202b5c:	3d8023a0 	str	q0, [x29, #128]
  202b60:	3d8027a1 	str	q1, [x29, #144]
  202b64:	3d802ba2 	str	q2, [x29, #160]
  202b68:	3d802fa3 	str	q3, [x29, #176]
  202b6c:	3d8033a4 	str	q4, [x29, #192]
  202b70:	3d8037a5 	str	q5, [x29, #208]
  202b74:	3d803ba6 	str	q6, [x29, #224]
  202b78:	3d803fa7 	str	q7, [x29, #240]
    int ret;
    va_list ap;
    va_start(ap, format);
  202b7c:	9104c3a0 	add	x0, x29, #0x130
  202b80:	f9002fa0 	str	x0, [x29, #88]
  202b84:	9104c3a0 	add	x0, x29, #0x130
  202b88:	f90033a0 	str	x0, [x29, #96]
  202b8c:	910403a0 	add	x0, x29, #0x100
  202b90:	f90037a0 	str	x0, [x29, #104]
  202b94:	128004e0 	mov	w0, #0xffffffd8            	// #-40
  202b98:	b90073a0 	str	w0, [x29, #112]
  202b9c:	12800fe0 	mov	w0, #0xffffff80            	// #-128
  202ba0:	b90077a0 	str	w0, [x29, #116]
    ret = vsnprintf(buf, size, format, ap);
  202ba4:	910043a2 	add	x2, x29, #0x10
  202ba8:	910163a3 	add	x3, x29, #0x58
  202bac:	a9400460 	ldp	x0, x1, [x3]
  202bb0:	a9000440 	stp	x0, x1, [x2]
  202bb4:	a9410460 	ldp	x0, x1, [x3, #16]
  202bb8:	a9010440 	stp	x0, x1, [x2, #16]
  202bbc:	910043a0 	add	x0, x29, #0x10
  202bc0:	aa0003e3 	mov	x3, x0
  202bc4:	f9401fa2 	ldr	x2, [x29, #56]
  202bc8:	f94023a1 	ldr	x1, [x29, #64]
  202bcc:	f94027a0 	ldr	x0, [x29, #72]
  202bd0:	94001ebc 	bl	20a6c0 <vsnprintf>
  202bd4:	b9007fa0 	str	w0, [x29, #124]
    va_end(ap);
    return ret;
  202bd8:	b9407fa0 	ldr	w0, [x29, #124]
}
  202bdc:	a8d37bfd 	ldp	x29, x30, [sp], #304
  202be0:	d65f03c0 	ret

0000000000202be4 <rt_sprintf>:

rt_int32_t rt_sprintf(char *buf, const char *format, ...)
{
  202be4:	a9ae7bfd 	stp	x29, x30, [sp, #-288]!
  202be8:	910003fd 	mov	x29, sp
  202bec:	f9001fa0 	str	x0, [x29, #56]
  202bf0:	f9001ba1 	str	x1, [x29, #48]
  202bf4:	f9007ba2 	str	x2, [x29, #240]
  202bf8:	f9007fa3 	str	x3, [x29, #248]
  202bfc:	f90083a4 	str	x4, [x29, #256]
  202c00:	f90087a5 	str	x5, [x29, #264]
  202c04:	f9008ba6 	str	x6, [x29, #272]
  202c08:	f9008fa7 	str	x7, [x29, #280]
  202c0c:	3d801fa0 	str	q0, [x29, #112]
  202c10:	3d8023a1 	str	q1, [x29, #128]
  202c14:	3d8027a2 	str	q2, [x29, #144]
  202c18:	3d802ba3 	str	q3, [x29, #160]
  202c1c:	3d802fa4 	str	q4, [x29, #176]
  202c20:	3d8033a5 	str	q5, [x29, #192]
  202c24:	3d8037a6 	str	q6, [x29, #208]
  202c28:	3d803ba7 	str	q7, [x29, #224]
    int ret;
    va_list ap;
    va_start(ap, format);
  202c2c:	910483a0 	add	x0, x29, #0x120
  202c30:	f90027a0 	str	x0, [x29, #72]
  202c34:	910483a0 	add	x0, x29, #0x120
  202c38:	f9002ba0 	str	x0, [x29, #80]
  202c3c:	9103c3a0 	add	x0, x29, #0xf0
  202c40:	f9002fa0 	str	x0, [x29, #88]
  202c44:	128005e0 	mov	w0, #0xffffffd0            	// #-48
  202c48:	b90063a0 	str	w0, [x29, #96]
  202c4c:	12800fe0 	mov	w0, #0xffffff80            	// #-128
  202c50:	b90067a0 	str	w0, [x29, #100]
    ret = vsprintf(buf, format, ap);
  202c54:	910043a2 	add	x2, x29, #0x10
  202c58:	910123a3 	add	x3, x29, #0x48
  202c5c:	a9400460 	ldp	x0, x1, [x3]
  202c60:	a9000440 	stp	x0, x1, [x2]
  202c64:	a9410460 	ldp	x0, x1, [x3, #16]
  202c68:	a9010440 	stp	x0, x1, [x2, #16]
  202c6c:	910043a0 	add	x0, x29, #0x10
  202c70:	aa0003e2 	mov	x2, x0
  202c74:	f9401ba1 	ldr	x1, [x29, #48]
  202c78:	f9401fa0 	ldr	x0, [x29, #56]
  202c7c:	94001ed9 	bl	20a7e0 <vsprintf>
  202c80:	b9006fa0 	str	w0, [x29, #108]
    va_end(ap);
    return ret;
  202c84:	b9406fa0 	ldr	w0, [x29, #108]
}
  202c88:	a8d27bfd 	ldp	x29, x30, [sp], #288
  202c8c:	d65f03c0 	ret

0000000000202c90 <rt_vsnprintf>:

rt_int32_t rt_vsnprintf(char *buf,
    rt_size_t size,
    const char *fmt,
    va_list args)
{
  202c90:	a9ba7bfd 	stp	x29, x30, [sp, #-96]!
  202c94:	910003fd 	mov	x29, sp
  202c98:	f9000bf3 	str	x19, [sp, #16]
  202c9c:	f9002fa0 	str	x0, [x29, #88]
  202ca0:	f9002ba1 	str	x1, [x29, #80]
  202ca4:	f90027a2 	str	x2, [x29, #72]
  202ca8:	aa0303f3 	mov	x19, x3
    return (rt_int32_t)vsnprintf(buf, size, fmt, args);
  202cac:	910083a2 	add	x2, x29, #0x20
  202cb0:	aa1303e3 	mov	x3, x19
  202cb4:	a9400460 	ldp	x0, x1, [x3]
  202cb8:	a9000440 	stp	x0, x1, [x2]
  202cbc:	a9410460 	ldp	x0, x1, [x3, #16]
  202cc0:	a9010440 	stp	x0, x1, [x2, #16]
  202cc4:	910083a0 	add	x0, x29, #0x20
  202cc8:	aa0003e3 	mov	x3, x0
  202ccc:	f94027a2 	ldr	x2, [x29, #72]
  202cd0:	f9402ba1 	ldr	x1, [x29, #80]
  202cd4:	f9402fa0 	ldr	x0, [x29, #88]
  202cd8:	94001e7a 	bl	20a6c0 <vsnprintf>
}
  202cdc:	f9400bf3 	ldr	x19, [sp, #16]
  202ce0:	a8c67bfd 	ldp	x29, x30, [sp], #96
  202ce4:	d65f03c0 	ret

0000000000202ce8 <rt_kprintf>:

void rt_kprintf(const char *fmt, ...)
{
  202ce8:	a9a87bfd 	stp	x29, x30, [sp, #-384]!
  202cec:	910003fd 	mov	x29, sp
  202cf0:	f9001fa0 	str	x0, [x29, #56]
  202cf4:	f900a7a1 	str	x1, [x29, #328]
  202cf8:	f900aba2 	str	x2, [x29, #336]
  202cfc:	f900afa3 	str	x3, [x29, #344]
  202d00:	f900b3a4 	str	x4, [x29, #352]
  202d04:	f900b7a5 	str	x5, [x29, #360]
  202d08:	f900bba6 	str	x6, [x29, #368]
  202d0c:	f900bfa7 	str	x7, [x29, #376]
  202d10:	3d8033a0 	str	q0, [x29, #192]
  202d14:	3d8037a1 	str	q1, [x29, #208]
  202d18:	3d803ba2 	str	q2, [x29, #224]
  202d1c:	3d803fa3 	str	q3, [x29, #240]
  202d20:	3d8043a4 	str	q4, [x29, #256]
  202d24:	3d8047a5 	str	q5, [x29, #272]
  202d28:	3d804ba6 	str	q6, [x29, #288]
  202d2c:	3d804fa7 	str	q7, [x29, #304]
    int ret;
    va_list ap;
    char buf[81];

    va_start(ap, fmt);
  202d30:	910603a0 	add	x0, x29, #0x180
  202d34:	f9004fa0 	str	x0, [x29, #152]
  202d38:	910603a0 	add	x0, x29, #0x180
  202d3c:	f90053a0 	str	x0, [x29, #160]
  202d40:	910503a0 	add	x0, x29, #0x140
  202d44:	f90057a0 	str	x0, [x29, #168]
  202d48:	128006e0 	mov	w0, #0xffffffc8            	// #-56
  202d4c:	b900b3a0 	str	w0, [x29, #176]
  202d50:	12800fe0 	mov	w0, #0xffffff80            	// #-128
  202d54:	b900b7a0 	str	w0, [x29, #180]
    ret = vsnprintf(buf, 81, fmt, ap);
  202d58:	910043a2 	add	x2, x29, #0x10
  202d5c:	910263a3 	add	x3, x29, #0x98
  202d60:	a9400460 	ldp	x0, x1, [x3]
  202d64:	a9000440 	stp	x0, x1, [x2]
  202d68:	a9410460 	ldp	x0, x1, [x3, #16]
  202d6c:	a9010440 	stp	x0, x1, [x2, #16]
  202d70:	910043a1 	add	x1, x29, #0x10
  202d74:	910103a0 	add	x0, x29, #0x40
  202d78:	aa0103e3 	mov	x3, x1
  202d7c:	f9401fa2 	ldr	x2, [x29, #56]
  202d80:	d2800a21 	mov	x1, #0x51                  	// #81
  202d84:	94001e4f 	bl	20a6c0 <vsnprintf>
  202d88:	b900bfa0 	str	w0, [x29, #188]
    va_end(ap);
    if (ret > 0)
  202d8c:	b940bfa0 	ldr	w0, [x29, #188]
  202d90:	7100001f 	cmp	w0, #0x0
  202d94:	540000ad 	b.le	202da8 <rt_kprintf+0xc0>
        printf("%s", buf);
  202d98:	910103a1 	add	x1, x29, #0x40
  202d9c:	f0000060 	adrp	x0, 211000 <__subtf3+0x7d0>
  202da0:	9128c000 	add	x0, x0, #0xa30
  202da4:	940014ff 	bl	2081a0 <printf>
}
  202da8:	d503201f 	nop
  202dac:	a8d87bfd 	ldp	x29, x30, [sp], #384
  202db0:	d65f03c0 	ret

0000000000202db4 <rt_strdup>:

char *rt_strdup(const char* s)
{
  202db4:	a9be7bfd 	stp	x29, x30, [sp, #-32]!
  202db8:	910003fd 	mov	x29, sp
  202dbc:	f9000fa0 	str	x0, [x29, #24]
    return strdup(s);
  202dc0:	f9400fa0 	ldr	x0, [x29, #24]
  202dc4:	9400206d 	bl	20af78 <strdup>
}
  202dc8:	a8c27bfd 	ldp	x29, x30, [sp], #32
  202dcc:	d65f03c0 	ret

0000000000202dd0 <rt_strstr>:

char *rt_strstr(const char *s1, const char *s2)
{
  202dd0:	a9be7bfd 	stp	x29, x30, [sp, #-32]!
  202dd4:	910003fd 	mov	x29, sp
  202dd8:	f9000fa0 	str	x0, [x29, #24]
  202ddc:	f9000ba1 	str	x1, [x29, #16]
    return strstr(s1, s2);
  202de0:	f9400ba1 	ldr	x1, [x29, #16]
  202de4:	f9400fa0 	ldr	x0, [x29, #24]
  202de8:	940021a6 	bl	20b480 <strstr>
}
  202dec:	a8c27bfd 	ldp	x29, x30, [sp], #32
  202df0:	d65f03c0 	ret

0000000000202df4 <rt_strcmp>:

rt_int32_t rt_strcmp(const char *cs, const char *ct)
{
  202df4:	a9be7bfd 	stp	x29, x30, [sp, #-32]!
  202df8:	910003fd 	mov	x29, sp
  202dfc:	f9000fa0 	str	x0, [x29, #24]
  202e00:	f9000ba1 	str	x1, [x29, #16]
    return (rt_int32_t)strcmp(cs, ct);
  202e04:	f9400ba1 	ldr	x1, [x29, #16]
  202e08:	f9400fa0 	ldr	x0, [x29, #24]
  202e0c:	94002047 	bl	20af28 <strcmp>
}
  202e10:	a8c27bfd 	ldp	x29, x30, [sp], #32
  202e14:	d65f03c0 	ret

0000000000202e18 <rt_strlen>:

rt_size_t rt_strlen(const char *src)
{
  202e18:	a9be7bfd 	stp	x29, x30, [sp, #-32]!
  202e1c:	910003fd 	mov	x29, sp
  202e20:	f9000fa0 	str	x0, [x29, #24]
    return strlen(src);
  202e24:	f9400fa0 	ldr	x0, [x29, #24]
  202e28:	94002066 	bl	20afc0 <strlen>
}
  202e2c:	a8c27bfd 	ldp	x29, x30, [sp], #32
  202e30:	d65f03c0 	ret

0000000000202e34 <rt_strncmp>:

rt_int32_t rt_strncmp(const char *cs, const char *ct, rt_ubase_t count)
{
  202e34:	a9bd7bfd 	stp	x29, x30, [sp, #-48]!
  202e38:	910003fd 	mov	x29, sp
  202e3c:	f90017a0 	str	x0, [x29, #40]
  202e40:	f90013a1 	str	x1, [x29, #32]
  202e44:	f9000fa2 	str	x2, [x29, #24]
    return strncmp(cs, ct, count);
  202e48:	f9400fa2 	ldr	x2, [x29, #24]
  202e4c:	f94013a1 	ldr	x1, [x29, #32]
  202e50:	f94017a0 	ldr	x0, [x29, #40]
  202e54:	9400207b 	bl	20b040 <strncmp>
}
  202e58:	a8c37bfd 	ldp	x29, x30, [sp], #48
  202e5c:	d65f03c0 	ret

0000000000202e60 <rt_strncpy>:

char *rt_strncpy(char *dest, const char *src, rt_ubase_t n)
{
  202e60:	a9bd7bfd 	stp	x29, x30, [sp, #-48]!
  202e64:	910003fd 	mov	x29, sp
  202e68:	f90017a0 	str	x0, [x29, #40]
  202e6c:	f90013a1 	str	x1, [x29, #32]
  202e70:	f9000fa2 	str	x2, [x29, #24]
    return strncpy(dest, src, n);
  202e74:	f9400fa2 	ldr	x2, [x29, #24]
  202e78:	f94013a1 	ldr	x1, [x29, #32]
  202e7c:	f94017a0 	ldr	x0, [x29, #40]
  202e80:	9400208c 	bl	20b0b0 <strncpy>
}
  202e84:	a8c37bfd 	ldp	x29, x30, [sp], #48
  202e88:	d65f03c0 	ret

0000000000202e8c <rt_strcasecmp>:

rt_uint32_t rt_strcasecmp(const char *a, const char *b)
{
  202e8c:	a9be7bfd 	stp	x29, x30, [sp, #-32]!
  202e90:	910003fd 	mov	x29, sp
  202e94:	f9000fa0 	str	x0, [x29, #24]
  202e98:	f9000ba1 	str	x1, [x29, #16]
    return strcasecmp(a, b);
  202e9c:	f9400ba1 	ldr	x1, [x29, #16]
  202ea0:	f9400fa0 	ldr	x0, [x29, #24]
  202ea4:	94001ff9 	bl	20ae88 <strcasecmp>
}
  202ea8:	a8c27bfd 	ldp	x29, x30, [sp], #32
  202eac:	d65f03c0 	ret

0000000000202eb0 <rt_memset>:

void *rt_memset(void *src, int c, rt_ubase_t n)
{
  202eb0:	a9bd7bfd 	stp	x29, x30, [sp, #-48]!
  202eb4:	910003fd 	mov	x29, sp
  202eb8:	f90017a0 	str	x0, [x29, #40]
  202ebc:	b90027a1 	str	w1, [x29, #36]
  202ec0:	f9000fa2 	str	x2, [x29, #24]
    return memset(src, c, n);
  202ec4:	f9400fa2 	ldr	x2, [x29, #24]
  202ec8:	b94027a1 	ldr	w1, [x29, #36]
  202ecc:	f94017a0 	ldr	x0, [x29, #40]
  202ed0:	94001fb6 	bl	20ada8 <memset>
}
  202ed4:	a8c37bfd 	ldp	x29, x30, [sp], #48
  202ed8:	d65f03c0 	ret

0000000000202edc <rt_memcpy>:

void *rt_memcpy(void *dest, const void *src, rt_ubase_t n)
{
  202edc:	a9bd7bfd 	stp	x29, x30, [sp, #-48]!
  202ee0:	910003fd 	mov	x29, sp
  202ee4:	f90017a0 	str	x0, [x29, #40]
  202ee8:	f90013a1 	str	x1, [x29, #32]
  202eec:	f9000fa2 	str	x2, [x29, #24]
    return memcpy(dest, src, n);
  202ef0:	f9400fa2 	ldr	x2, [x29, #24]
  202ef4:	f94013a1 	ldr	x1, [x29, #32]
  202ef8:	f94017a0 	ldr	x0, [x29, #40]
  202efc:	94001e59 	bl	20a860 <memcpy>
}
  202f00:	a8c37bfd 	ldp	x29, x30, [sp], #48
  202f04:	d65f03c0 	ret

0000000000202f08 <rt_memcmp>:

rt_int32_t rt_memcmp(const void *cs, const void *ct, rt_ubase_t count)
{
  202f08:	a9bd7bfd 	stp	x29, x30, [sp, #-48]!
  202f0c:	910003fd 	mov	x29, sp
  202f10:	f90017a0 	str	x0, [x29, #40]
  202f14:	f90013a1 	str	x1, [x29, #32]
  202f18:	f9000fa2 	str	x2, [x29, #24]
    return memcmp(cs, ct, count);
  202f1c:	f9400fa2 	ldr	x2, [x29, #24]
  202f20:	f94013a1 	ldr	x1, [x29, #32]
  202f24:	f94017a0 	ldr	x0, [x29, #40]
  202f28:	94001e3a 	bl	20a810 <memcmp>
}
  202f2c:	a8c37bfd 	ldp	x29, x30, [sp], #48
  202f30:	d65f03c0 	ret

0000000000202f34 <rt_memmove>:

void *rt_memmove(void *dest, const void *src, rt_ubase_t n)
{
  202f34:	a9bd7bfd 	stp	x29, x30, [sp, #-48]!
  202f38:	910003fd 	mov	x29, sp
  202f3c:	f90017a0 	str	x0, [x29, #40]
  202f40:	f90013a1 	str	x1, [x29, #32]
  202f44:	f9000fa2 	str	x2, [x29, #24]
    return memmove(dest, src, n);
  202f48:	f9400fa2 	ldr	x2, [x29, #24]
  202f4c:	f94013a1 	ldr	x1, [x29, #32]
  202f50:	f94017a0 	ldr	x0, [x29, #40]
  202f54:	94001f37 	bl	20ac30 <memmove>
}
  202f58:	a8c37bfd 	ldp	x29, x30, [sp], #48
  202f5c:	d65f03c0 	ret

0000000000202f60 <rt_tick_from_millisecond>:

rt_tick_t rt_tick_from_millisecond(rt_int32_t ms)
{
  202f60:	d10083ff 	sub	sp, sp, #0x20
  202f64:	b9000fe0 	str	w0, [sp, #12]
    rt_tick_t tick;

    if (ms < 0)
  202f68:	b9400fe0 	ldr	w0, [sp, #12]
  202f6c:	7100001f 	cmp	w0, #0x0
  202f70:	5400008a 	b.ge	202f80 <rt_tick_from_millisecond+0x20>  // b.tcont
    {
        tick = (rt_tick_t)RT_WAITING_FOREVER;
  202f74:	12800000 	mov	w0, #0xffffffff            	// #-1
  202f78:	b9001fe0 	str	w0, [sp, #28]
  202f7c:	14000025 	b	203010 <rt_tick_from_millisecond+0xb0>
    }
    else
    {
        tick = RT_TICK_PER_SECOND * (ms / 1000);
  202f80:	b9400fe0 	ldr	w0, [sp, #12]
  202f84:	5289ba61 	mov	w1, #0x4dd3                	// #19923
  202f88:	72a20c41 	movk	w1, #0x1062, lsl #16
  202f8c:	9b217c01 	smull	x1, w0, w1
  202f90:	d360fc21 	lsr	x1, x1, #32
  202f94:	13067c21 	asr	w1, w1, #6
  202f98:	131f7c00 	asr	w0, w0, #31
  202f9c:	4b000021 	sub	w1, w1, w0
  202fa0:	52807d00 	mov	w0, #0x3e8                 	// #1000
  202fa4:	1b007c20 	mul	w0, w1, w0
  202fa8:	b9001fe0 	str	w0, [sp, #28]
        tick += (RT_TICK_PER_SECOND * (ms % 1000) + 999) / 1000;
  202fac:	b9400fe1 	ldr	w1, [sp, #12]
  202fb0:	5289ba60 	mov	w0, #0x4dd3                	// #19923
  202fb4:	72a20c40 	movk	w0, #0x1062, lsl #16
  202fb8:	9b207c20 	smull	x0, w1, w0
  202fbc:	d360fc00 	lsr	x0, x0, #32
  202fc0:	13067c02 	asr	w2, w0, #6
  202fc4:	131f7c20 	asr	w0, w1, #31
  202fc8:	4b000040 	sub	w0, w2, w0
  202fcc:	52807d02 	mov	w2, #0x3e8                 	// #1000
  202fd0:	1b027c00 	mul	w0, w0, w2
  202fd4:	4b000020 	sub	w0, w1, w0
  202fd8:	52807d01 	mov	w1, #0x3e8                 	// #1000
  202fdc:	1b017c00 	mul	w0, w0, w1
  202fe0:	110f9c00 	add	w0, w0, #0x3e7
  202fe4:	5289ba61 	mov	w1, #0x4dd3                	// #19923
  202fe8:	72a20c41 	movk	w1, #0x1062, lsl #16
  202fec:	9b217c01 	smull	x1, w0, w1
  202ff0:	d360fc21 	lsr	x1, x1, #32
  202ff4:	13067c21 	asr	w1, w1, #6
  202ff8:	131f7c00 	asr	w0, w0, #31
  202ffc:	4b000020 	sub	w0, w1, w0
  203000:	2a0003e1 	mov	w1, w0
  203004:	b9401fe0 	ldr	w0, [sp, #28]
  203008:	0b010000 	add	w0, w0, w1
  20300c:	b9001fe0 	str	w0, [sp, #28]
    }

    /* return the calculated tick */
    return tick;
  203010:	b9401fe0 	ldr	w0, [sp, #28]
}
  203014:	910083ff 	add	sp, sp, #0x20
  203018:	d65f03c0 	ret

000000000020301c <rt_malloc_align>:
 * @param align the alignment size
 *
 * @return the allocated memory block on successful, otherwise returns RT_NULL
 */
void *rt_malloc_align(rt_size_t size, rt_size_t align)
{
  20301c:	a9bc7bfd 	stp	x29, x30, [sp, #-64]!
  203020:	910003fd 	mov	x29, sp
  203024:	f9000fa0 	str	x0, [x29, #24]
  203028:	f9000ba1 	str	x1, [x29, #16]
    void *align_ptr;
    int uintptr_size;
    rt_size_t align_size;

    /* sizeof pointer */
    uintptr_size = sizeof(void*);
  20302c:	52800100 	mov	w0, #0x8                   	// #8
  203030:	b9002fa0 	str	w0, [x29, #44]
    uintptr_size -= 1;
  203034:	b9402fa0 	ldr	w0, [x29, #44]
  203038:	51000400 	sub	w0, w0, #0x1
  20303c:	b9002fa0 	str	w0, [x29, #44]

    /* align the alignment size to uintptr size byte */
    align = ((align + uintptr_size) & ~uintptr_size);
  203040:	b9802fa1 	ldrsw	x1, [x29, #44]
  203044:	f9400ba0 	ldr	x0, [x29, #16]
  203048:	8b000021 	add	x1, x1, x0
  20304c:	b9402fa0 	ldr	w0, [x29, #44]
  203050:	2a2003e0 	mvn	w0, w0
  203054:	93407c00 	sxtw	x0, w0
  203058:	8a000020 	and	x0, x1, x0
  20305c:	f9000ba0 	str	x0, [x29, #16]

    /* get total aligned size */
    align_size = ((size + uintptr_size) & ~uintptr_size) + align;
  203060:	b9802fa1 	ldrsw	x1, [x29, #44]
  203064:	f9400fa0 	ldr	x0, [x29, #24]
  203068:	8b000021 	add	x1, x1, x0
  20306c:	b9402fa0 	ldr	w0, [x29, #44]
  203070:	2a2003e0 	mvn	w0, w0
  203074:	93407c00 	sxtw	x0, w0
  203078:	8a000020 	and	x0, x1, x0
  20307c:	f9400ba1 	ldr	x1, [x29, #16]
  203080:	8b000020 	add	x0, x1, x0
  203084:	f90013a0 	str	x0, [x29, #32]
    /* allocate memory block from heap */
    ptr = rt_malloc(align_size);
  203088:	f94013a0 	ldr	x0, [x29, #32]
  20308c:	97fffe8a 	bl	202ab4 <rt_malloc>
  203090:	f9001fa0 	str	x0, [x29, #56]
    if (ptr != RT_NULL)
  203094:	f9401fa0 	ldr	x0, [x29, #56]
  203098:	f100001f 	cmp	x0, #0x0
  20309c:	54000360 	b.eq	203108 <rt_malloc_align+0xec>  // b.none
    {
        /* the allocated memory block is aligned */
        if (((rt_ubase_t)ptr & (align - 1)) == 0)
  2030a0:	f9400ba0 	ldr	x0, [x29, #16]
  2030a4:	d1000401 	sub	x1, x0, #0x1
  2030a8:	f9401fa0 	ldr	x0, [x29, #56]
  2030ac:	8a000020 	and	x0, x1, x0
  2030b0:	f100001f 	cmp	x0, #0x0
  2030b4:	540000c1 	b.ne	2030cc <rt_malloc_align+0xb0>  // b.any
        {
            align_ptr = (void *)((rt_ubase_t)ptr + align);
  2030b8:	f9401fa1 	ldr	x1, [x29, #56]
  2030bc:	f9400ba0 	ldr	x0, [x29, #16]
  2030c0:	8b000020 	add	x0, x1, x0
  2030c4:	f9001ba0 	str	x0, [x29, #48]
  2030c8:	14000009 	b	2030ec <rt_malloc_align+0xd0>
        }
        else
        {
            align_ptr = (void *)(((rt_ubase_t)ptr + (align - 1)) & ~(align - 1));
  2030cc:	f9401fa1 	ldr	x1, [x29, #56]
  2030d0:	f9400ba0 	ldr	x0, [x29, #16]
  2030d4:	8b000020 	add	x0, x1, x0
  2030d8:	d1000401 	sub	x1, x0, #0x1
  2030dc:	f9400ba0 	ldr	x0, [x29, #16]
  2030e0:	cb0003e0 	neg	x0, x0
  2030e4:	8a000020 	and	x0, x1, x0
  2030e8:	f9001ba0 	str	x0, [x29, #48]
        }

        /* set the pointer before alignment pointer to the real pointer */
        *((rt_ubase_t *)((rt_ubase_t)align_ptr - sizeof(void *))) = (rt_ubase_t)ptr;
  2030ec:	f9401ba0 	ldr	x0, [x29, #48]
  2030f0:	d1002000 	sub	x0, x0, #0x8
  2030f4:	aa0003e1 	mov	x1, x0
  2030f8:	f9401fa0 	ldr	x0, [x29, #56]
  2030fc:	f9000020 	str	x0, [x1]

        ptr = align_ptr;
  203100:	f9401ba0 	ldr	x0, [x29, #48]
  203104:	f9001fa0 	str	x0, [x29, #56]
    }

    return ptr;
  203108:	f9401fa0 	ldr	x0, [x29, #56]
}
  20310c:	a8c47bfd 	ldp	x29, x30, [sp], #64
  203110:	d65f03c0 	ret

0000000000203114 <rt_free_align>:
 * rt_malloc_align function and address is aligned.
 *
 * @param ptr the memory block pointer
 */
void rt_free_align(void *ptr)
{
  203114:	a9bd7bfd 	stp	x29, x30, [sp, #-48]!
  203118:	910003fd 	mov	x29, sp
  20311c:	f9000fa0 	str	x0, [x29, #24]
    void *real_ptr;

    real_ptr = (void *) * (rt_ubase_t *)((rt_ubase_t)ptr - sizeof(void *));
  203120:	f9400fa0 	ldr	x0, [x29, #24]
  203124:	d1002000 	sub	x0, x0, #0x8
  203128:	f9400000 	ldr	x0, [x0]
  20312c:	f90017a0 	str	x0, [x29, #40]
    rt_free(real_ptr);
  203130:	f94017a0 	ldr	x0, [x29, #40]
  203134:	97fffe67 	bl	202ad0 <rt_free>
}
  203138:	d503201f 	nop
  20313c:	a8c37bfd 	ldp	x29, x30, [sp], #48
  203140:	d65f03c0 	ret

0000000000203144 <rt_assert_handler>:

void rt_assert_handler(const char *ex_string, const char *func, rt_size_t line)
{
  203144:	a9bd7bfd 	stp	x29, x30, [sp, #-48]!
  203148:	910003fd 	mov	x29, sp
  20314c:	f90017a0 	str	x0, [x29, #40]
  203150:	f90013a1 	str	x1, [x29, #32]
  203154:	f9000fa2 	str	x2, [x29, #24]
    printf("UserAPP: (%s) assertion failed at function:%s, line number:%d \n", ex_string, func, (int)line);
  203158:	f9400fa0 	ldr	x0, [x29, #24]
  20315c:	2a0003e1 	mov	w1, w0
  203160:	d0000060 	adrp	x0, 211000 <__subtf3+0x7d0>
  203164:	9128e000 	add	x0, x0, #0xa38
  203168:	2a0103e3 	mov	w3, w1
  20316c:	f94013a2 	ldr	x2, [x29, #32]
  203170:	f94017a1 	ldr	x1, [x29, #40]
  203174:	9400140b 	bl	2081a0 <printf>
    exit(-1);
  203178:	12800000 	mov	w0, #0xffffffff            	// #-1
  20317c:	9400011f 	bl	2035f8 <exit>

0000000000203180 <thread_handler>:
#include <time.h>   /* for timer_create(), `struct itimerspec`,
                     * timer_t and CLOCK_REALTIME 
                     */
#include <errno.h>

void thread_handler(union sigval sv) {
  203180:	a9bd7bfd 	stp	x29, x30, [sp, #-48]!
  203184:	910003fd 	mov	x29, sp
  203188:	f9000fa0 	str	x0, [x29, #24]
        char *s = sv.sival_ptr;
  20318c:	f9400fa0 	ldr	x0, [x29, #24]
  203190:	f90017a0 	str	x0, [x29, #40]

        /* Will print "5 seconds elapsed." */
        puts(s);
  203194:	f94017a0 	ldr	x0, [x29, #40]
  203198:	94001424 	bl	208228 <puts>
}
  20319c:	d503201f 	nop
  2031a0:	a8c37bfd 	ldp	x29, x30, [sp], #48
  2031a4:	d65f03c0 	ret

00000000002031a8 <main>:

int main(void) {
  2031a8:	a9b67bfd 	stp	x29, x30, [sp, #-160]!
  2031ac:	910003fd 	mov	x29, sp
  2031b0:	f9000bf3 	str	x19, [sp, #16]
        char info[] = "1 seconds elapsed.";
  2031b4:	d0000060 	adrp	x0, 211000 <__subtf3+0x7d0>
  2031b8:	912ae000 	add	x0, x0, #0xab8
  2031bc:	910223a2 	add	x2, x29, #0x88
  2031c0:	aa0003e3 	mov	x3, x0
  2031c4:	a9400460 	ldp	x0, x1, [x3]
  2031c8:	a9000440 	stp	x0, x1, [x2]
  2031cc:	91003c61 	add	x1, x3, #0xf
  2031d0:	91003c40 	add	x0, x2, #0xf
  2031d4:	b9400021 	ldr	w1, [x1]
  2031d8:	b9000001 	str	w1, [x0]
        timer_t timerid;
        struct sigevent sev;
        struct itimerspec trigger;

        /* Set all `sev` and `trigger` memory to 0 */
        memset(&sev, 0, sizeof(struct sigevent));
  2031dc:	910103a0 	add	x0, x29, #0x40
  2031e0:	d2800802 	mov	x2, #0x40                  	// #64
  2031e4:	52800001 	mov	w1, #0x0                   	// #0
  2031e8:	94001ef0 	bl	20ada8 <memset>
        memset(&trigger, 0, sizeof(struct itimerspec));
  2031ec:	910083a0 	add	x0, x29, #0x20
  2031f0:	d2800402 	mov	x2, #0x20                  	// #32
  2031f4:	52800001 	mov	w1, #0x0                   	// #0
  2031f8:	94001eec 	bl	20ada8 <memset>
         *
         * Upon timer expiration, `sigev_notify_function` (thread_handler()),
         * will be invoked as if it were the start function of a new thread.
         *
         */
        sev.sigev_notify = SIGEV_THREAD;
  2031fc:	52800040 	mov	w0, #0x2                   	// #2
  203200:	b9004fa0 	str	w0, [x29, #76]
        sev.sigev_notify_function = &thread_handler;
  203204:	90000000 	adrp	x0, 203000 <rt_tick_from_millisecond+0xa0>
  203208:	91060000 	add	x0, x0, #0x180
  20320c:	f9002ba0 	str	x0, [x29, #80]
        sev.sigev_value.sival_ptr = &info;
  203210:	910223a0 	add	x0, x29, #0x88
  203214:	f90023a0 	str	x0, [x29, #64]

        /* Create the timer. In this example, CLOCK_REALTIME is used as the
         * clock, meaning that we're using a system-wide real-time clock for
         * this timer.
         */
        if (timer_create(CLOCK_REALTIME, &sev, &timerid))
  203218:	910203a1 	add	x1, x29, #0x80
  20321c:	910103a0 	add	x0, x29, #0x40
  203220:	aa0103e2 	mov	x2, x1
  203224:	aa0003e1 	mov	x1, x0
  203228:	52800000 	mov	w0, #0x0                   	// #0
  20322c:	9400254f 	bl	20c768 <timer_create>
  203230:	7100001f 	cmp	w0, #0x0
  203234:	540001c0 	b.eq	20326c <main+0xc4>  // b.none
        {
            fprintf(stderr, "timer_create failed: %s\n", strerror(errno));
  203238:	b0000080 	adrp	x0, 214000 <syscall_table+0x800>
  20323c:	9113a000 	add	x0, x0, #0x4e8
  203240:	f9400013 	ldr	x19, [x0]
  203244:	940000b7 	bl	203520 <__errno_location>
  203248:	b9400000 	ldr	w0, [x0]
  20324c:	940000d5 	bl	2035a0 <strerror>
  203250:	aa0003e1 	mov	x1, x0
  203254:	d0000060 	adrp	x0, 211000 <__subtf3+0x7d0>
  203258:	9129e000 	add	x0, x0, #0xa78
  20325c:	aa0103e2 	mov	x2, x1
  203260:	aa0003e1 	mov	x1, x0
  203264:	aa1303e0 	mov	x0, x19
  203268:	9400135a 	bl	207fd0 <fprintf>
        }

        /* Timer expiration will occur withing 5 seconds after being armed
         * by timer_settime().
         */
        trigger.it_value.tv_sec = 1;
  20326c:	d2800020 	mov	x0, #0x1                   	// #1
  203270:	f9001ba0 	str	x0, [x29, #48]

        /* Arm the timer. No flags are set and no old_value will be retrieved.
         */
        if (timer_settime(timerid, 0, &trigger, NULL))
  203274:	f94043a0 	ldr	x0, [x29, #128]
  203278:	910083a1 	add	x1, x29, #0x20
  20327c:	d2800003 	mov	x3, #0x0                   	// #0
  203280:	aa0103e2 	mov	x2, x1
  203284:	52800001 	mov	w1, #0x0                   	// #0
  203288:	940025f0 	bl	20ca48 <timer_settime>
  20328c:	7100001f 	cmp	w0, #0x0
  203290:	540001c0 	b.eq	2032c8 <main+0x120>  // b.none
        {
            fprintf(stderr, "timer_settime failed: %s\n", strerror(errno));
  203294:	b0000080 	adrp	x0, 214000 <syscall_table+0x800>
  203298:	9113a000 	add	x0, x0, #0x4e8
  20329c:	f9400013 	ldr	x19, [x0]
  2032a0:	940000a0 	bl	203520 <__errno_location>
  2032a4:	b9400000 	ldr	w0, [x0]
  2032a8:	940000be 	bl	2035a0 <strerror>
  2032ac:	aa0003e1 	mov	x1, x0
  2032b0:	d0000060 	adrp	x0, 211000 <__subtf3+0x7d0>
  2032b4:	912a6000 	add	x0, x0, #0xa98
  2032b8:	aa0103e2 	mov	x2, x1
  2032bc:	aa0003e1 	mov	x1, x0
  2032c0:	aa1303e0 	mov	x0, x19
  2032c4:	94001343 	bl	207fd0 <fprintf>

        /* Wait 5 seconds under the main thread. In 1 seconds (when the
         * timer expires), a message will be printed to the standard output
         * by the newly created notification thread.
         */
        sleep(2);
  2032c8:	52800040 	mov	w0, #0x2                   	// #2
  2032cc:	9400260d 	bl	20cb00 <sleep>

        /* Delete (destroy) the timer */
        timer_delete(timerid);
  2032d0:	f94043a0 	ldr	x0, [x29, #128]
  2032d4:	940025bd 	bl	20c9c8 <timer_delete>

        return EXIT_SUCCESS;
  2032d8:	52800000 	mov	w0, #0x0                   	// #0
}
  2032dc:	f9400bf3 	ldr	x19, [sp, #16]
  2032e0:	a8ca7bfd 	ldp	x29, x30, [sp], #160
  2032e4:	d65f03c0 	ret

00000000002032e8 <dummy>:
  2032e8:	d65f03c0 	ret
  2032ec:	00000000 	.inst	0x00000000 ; undefined

00000000002032f0 <dummy1>:
  2032f0:	d65f03c0 	ret
  2032f4:	00000000 	.inst	0x00000000 ; undefined

00000000002032f8 <__init_libc>:
  2032f8:	a9ab53f3 	stp	x19, x20, [sp, #-336]!
  2032fc:	aa0003f3 	mov	x19, x0
  203300:	aa0103f4 	mov	x20, x1
  203304:	d2802602 	mov	x2, #0x130                 	// #304
  203308:	910083e3 	add	x3, sp, #0x20
  20330c:	52800001 	mov	w1, #0x0                   	// #0
  203310:	aa0303e0 	mov	x0, x3
  203314:	f9000bfe 	str	x30, [sp, #16]
  203318:	94001ea4 	bl	20ada8 <memset>
  20331c:	aa0003e3 	mov	x3, x0
  203320:	d0000081 	adrp	x1, 215000 <__data_start__>
  203324:	f9400260 	ldr	x0, [x19]
  203328:	f9068033 	str	x19, [x1, #3328]
  20332c:	b4000920 	cbz	x0, 203450 <__init_libc+0x158>
  203330:	d2800000 	mov	x0, #0x0                   	// #0
  203334:	14000002 	b	20333c <__init_libc+0x44>
  203338:	aa0103e0 	mov	x0, x1
  20333c:	91000401 	add	x1, x0, #0x1
  203340:	f8617a62 	ldr	x2, [x19, x1, lsl #3]
  203344:	b5ffffa2 	cbnz	x2, 203338 <__init_libc+0x40>
  203348:	91000800 	add	x0, x0, #0x2
  20334c:	d37df000 	lsl	x0, x0, #3
  203350:	d0000084 	adrp	x4, 215000 <__data_start__>
  203354:	913ba082 	add	x2, x4, #0xee8
  203358:	f8606a61 	ldr	x1, [x19, x0]
  20335c:	8b000260 	add	x0, x19, x0
  203360:	f9000840 	str	x0, [x2, #16]
  203364:	b40006e1 	cbz	x1, 203440 <__init_libc+0x148>
  203368:	91002000 	add	x0, x0, #0x8
  20336c:	f100943f 	cmp	x1, #0x25
  203370:	54000068 	b.hi	20337c <__init_libc+0x84>  // b.pmore
  203374:	f9400002 	ldr	x2, [x0]
  203378:	f8217862 	str	x2, [x3, x1, lsl #3]
  20337c:	91004000 	add	x0, x0, #0x10
  203380:	f85f8001 	ldur	x1, [x0, #-8]
  203384:	b5ffff41 	cbnz	x1, 20336c <__init_libc+0x74>
  203388:	f9402be5 	ldr	x5, [sp, #80]
  20338c:	f94053e1 	ldr	x1, [sp, #160]
  203390:	f94093e6 	ldr	x6, [sp, #288]
  203394:	913ba084 	add	x4, x4, #0xee8
  203398:	d0000082 	adrp	x2, 215000 <__data_start__>
  20339c:	d0000080 	adrp	x0, 215000 <__data_start__>
  2033a0:	f9077041 	str	x1, [x2, #3808]
  2033a4:	f907ac06 	str	x6, [x0, #3928]
  2033a8:	f9001c85 	str	x5, [x4, #56]
  2033ac:	b40002b4 	cbz	x20, 203400 <__init_libc+0x108>
  2033b0:	d0000080 	adrp	x0, 215000 <__data_start__>
  2033b4:	d0000082 	adrp	x2, 215000 <__data_start__>
  2033b8:	f9013c14 	str	x20, [x0, #632]
  2033bc:	f9013854 	str	x20, [x2, #624]
  2033c0:	39400280 	ldrb	w0, [x20]
  2033c4:	340000e0 	cbz	w0, 2033e0 <__init_libc+0xe8>
  2033c8:	91000681 	add	x1, x20, #0x1
  2033cc:	7100bc1f 	cmp	w0, #0x2f
  2033d0:	54000041 	b.ne	2033d8 <__init_libc+0xe0>  // b.any
  2033d4:	f9013841 	str	x1, [x2, #624]
  2033d8:	38401420 	ldrb	w0, [x1], #1
  2033dc:	35ffff80 	cbnz	w0, 2033cc <__init_libc+0xd4>
  2033e0:	aa0303e0 	mov	x0, x3
  2033e4:	94002631 	bl	20cca8 <__init_tls>
  2033e8:	f94077e0 	ldr	x0, [sp, #232]
  2033ec:	940026d1 	bl	20cf30 <__init_ssp>
  2033f0:	f9400bfe 	ldr	x30, [sp, #16]
  2033f4:	a8d553f3 	ldp	x19, x20, [sp], #336
  2033f8:	d65f03c0 	ret
  2033fc:	d503201f 	nop
  203400:	f9408fe1 	ldr	x1, [sp, #280]
  203404:	b50002a1 	cbnz	x1, 203458 <__init_libc+0x160>
  203408:	d0000082 	adrp	x2, 215000 <__data_start__>
  20340c:	d0000081 	adrp	x1, 215000 <__data_start__>
  203410:	d0000060 	adrp	x0, 211000 <__subtf3+0x7d0>
  203414:	912b8000 	add	x0, x0, #0xae0
  203418:	f9013c40 	str	x0, [x2, #632]
  20341c:	f9013820 	str	x0, [x1, #624]
  203420:	aa0303e0 	mov	x0, x3
  203424:	94002621 	bl	20cca8 <__init_tls>
  203428:	f94077e0 	ldr	x0, [sp, #232]
  20342c:	940026c1 	bl	20cf30 <__init_ssp>
  203430:	f9400bfe 	ldr	x30, [sp, #16]
  203434:	a8d553f3 	ldp	x19, x20, [sp], #336
  203438:	d65f03c0 	ret
  20343c:	d503201f 	nop
  203440:	d2800005 	mov	x5, #0x0                   	// #0
  203444:	d2800006 	mov	x6, #0x0                   	// #0
  203448:	17ffffd3 	b	203394 <__init_libc+0x9c>
  20344c:	d503201f 	nop
  203450:	d2800100 	mov	x0, #0x8                   	// #8
  203454:	17ffffbf 	b	203350 <__init_libc+0x58>
  203458:	aa0103f4 	mov	x20, x1
  20345c:	17ffffd5 	b	2033b0 <__init_libc+0xb8>

0000000000203460 <__libc_start_init>:
  203460:	a9be53f3 	stp	x19, x20, [sp, #-32]!
  203464:	f9000bfe 	str	x30, [sp, #16]
  203468:	94003910 	bl	2118a8 <_init>
  20346c:	d0000061 	adrp	x1, 211000 <__subtf3+0x7d0>
  203470:	d0000060 	adrp	x0, 211000 <__subtf3+0x7d0>
  203474:	f9456833 	ldr	x19, [x1, #2768]
  203478:	f9456c14 	ldr	x20, [x0, #2776]
  20347c:	eb14027f 	cmp	x19, x20
  203480:	540000a2 	b.cs	203494 <__libc_start_init+0x34>  // b.hs, b.nlast
  203484:	f8408660 	ldr	x0, [x19], #8
  203488:	d63f0000 	blr	x0
  20348c:	eb14027f 	cmp	x19, x20
  203490:	54ffffa3 	b.cc	203484 <__libc_start_init+0x24>  // b.lo, b.ul, b.last
  203494:	f9400bfe 	ldr	x30, [sp, #16]
  203498:	a8c253f3 	ldp	x19, x20, [sp], #32
  20349c:	d65f03c0 	ret

00000000002034a0 <libc_start_main_stage2>:
  2034a0:	a9bd53f3 	stp	x19, x20, [sp, #-48]!
  2034a4:	8b21cc53 	add	x19, x2, w1, sxtw #3
  2034a8:	2a0103f4 	mov	w20, w1
  2034ac:	91002273 	add	x19, x19, #0x8
  2034b0:	a9015bf5 	stp	x21, x22, [sp, #16]
  2034b4:	aa0203f5 	mov	x21, x2
  2034b8:	aa0003f6 	mov	x22, x0
  2034bc:	f90013fe 	str	x30, [sp, #32]
  2034c0:	97ffffe8 	bl	203460 <__libc_start_init>
  2034c4:	aa1303e2 	mov	x2, x19
  2034c8:	aa1503e1 	mov	x1, x21
  2034cc:	2a1403e0 	mov	w0, w20
  2034d0:	d63f02c0 	blr	x22
  2034d4:	94000049 	bl	2035f8 <exit>

00000000002034d8 <__libc_start_main>:
  2034d8:	a9be53f3 	stp	x19, x20, [sp, #-32]!
  2034dc:	2a0103f4 	mov	w20, w1
  2034e0:	8b21cc41 	add	x1, x2, w1, sxtw #3
  2034e4:	aa0203f3 	mov	x19, x2
  2034e8:	a9017bf5 	stp	x21, x30, [sp, #16]
  2034ec:	aa0003f5 	mov	x21, x0
  2034f0:	91002020 	add	x0, x1, #0x8
  2034f4:	f9400041 	ldr	x1, [x2]
  2034f8:	97ffff80 	bl	2032f8 <__init_libc>
  2034fc:	aa1303e2 	mov	x2, x19
  203500:	2a1403e1 	mov	w1, w20
  203504:	aa1503e0 	mov	x0, x21
  203508:	90000003 	adrp	x3, 203000 <rt_tick_from_millisecond+0xa0>
  20350c:	91128063 	add	x3, x3, #0x4a0
  203510:	a9417bf5 	ldp	x21, x30, [sp, #16]
  203514:	a8c253f3 	ldp	x19, x20, [sp], #32
  203518:	d61f0060 	br	x3
  20351c:	00000000 	.inst	0x00000000 ; undefined

0000000000203520 <__errno_location>:
  203520:	d53bd040 	mrs	x0, tpidr_el0
  203524:	d1029000 	sub	x0, x0, #0xa4
  203528:	d65f03c0 	ret
  20352c:	00000000 	.inst	0x00000000 ; undefined

0000000000203530 <__strerror_l>:
  203530:	7101501f 	cmp	w0, #0x54
  203534:	540002e0 	b.eq	203590 <__strerror_l+0x60>  // b.none
  203538:	d0000062 	adrp	x2, 211000 <__subtf3+0x7d0>
  20353c:	912ba042 	add	x2, x2, #0xae8
  203540:	52800023 	mov	w3, #0x1                   	// #1
  203544:	52800424 	mov	w4, #0x21                  	// #33
  203548:	91000442 	add	x2, x2, #0x1
  20354c:	6b00009f 	cmp	w4, w0
  203550:	54000080 	b.eq	203560 <__strerror_l+0x30>  // b.none
  203554:	39400444 	ldrb	w4, [x2, #1]
  203558:	11000463 	add	w3, w3, #0x1
  20355c:	35ffff64 	cbnz	w4, 203548 <__strerror_l+0x18>
  203560:	d0000062 	adrp	x2, 211000 <__subtf3+0x7d0>
  203564:	912d2042 	add	x2, x2, #0xb48
  203568:	52800924 	mov	w4, #0x49                  	// #73
  20356c:	34000064 	cbz	w4, 203578 <__strerror_l+0x48>
  203570:	38401c40 	ldrb	w0, [x2, #1]!
  203574:	35ffffe0 	cbnz	w0, 203570 <__strerror_l+0x40>
  203578:	91000440 	add	x0, x2, #0x1
  20357c:	71000463 	subs	w3, w3, #0x1
  203580:	540000c0 	b.eq	203598 <__strerror_l+0x68>  // b.none
  203584:	39400444 	ldrb	w4, [x2, #1]
  203588:	aa0003e2 	mov	x2, x0
  20358c:	17fffff8 	b	20356c <__strerror_l+0x3c>
  203590:	d0000060 	adrp	x0, 211000 <__subtf3+0x7d0>
  203594:	912d2000 	add	x0, x0, #0xb48
  203598:	f9401421 	ldr	x1, [x1, #40]
  20359c:	14000b97 	b	2063f8 <__lctrans>

00000000002035a0 <strerror>:
  2035a0:	d53bd041 	mrs	x1, tpidr_el0
  2035a4:	f85d0021 	ldur	x1, [x1, #-48]
  2035a8:	17ffffe2 	b	203530 <__strerror_l>
  2035ac:	00000000 	.inst	0x00000000 ; undefined

00000000002035b0 <__funcs_on_exit>:
  2035b0:	d65f03c0 	ret
  2035b4:	00000000 	.inst	0x00000000 ; undefined

00000000002035b8 <__libc_exit_fini>:
  2035b8:	a9be53f3 	stp	x19, x20, [sp, #-32]!
  2035bc:	f0000061 	adrp	x1, 212000 <errmsg+0x4b8>
  2035c0:	f0000060 	adrp	x0, 212000 <errmsg+0x4b8>
  2035c4:	f9413433 	ldr	x19, [x1, #616]
  2035c8:	f9413814 	ldr	x20, [x0, #624]
  2035cc:	f9000bfe 	str	x30, [sp, #16]
  2035d0:	eb14027f 	cmp	x19, x20
  2035d4:	540000a9 	b.ls	2035e8 <__libc_exit_fini+0x30>  // b.plast
  2035d8:	f85f8e60 	ldr	x0, [x19, #-8]!
  2035dc:	d63f0000 	blr	x0
  2035e0:	eb14027f 	cmp	x19, x20
  2035e4:	54ffffa8 	b.hi	2035d8 <__libc_exit_fini+0x20>  // b.pmore
  2035e8:	f9400bfe 	ldr	x30, [sp, #16]
  2035ec:	a8c253f3 	ldp	x19, x20, [sp], #32
  2035f0:	140038b2 	b	2118b8 <_fini>
  2035f4:	00000000 	.inst	0x00000000 ; undefined

00000000002035f8 <exit>:
  2035f8:	a9bf7bf3 	stp	x19, x30, [sp, #-16]!
  2035fc:	2a0003f3 	mov	w19, w0
  203600:	97ffffec 	bl	2035b0 <__funcs_on_exit>
  203604:	97ffffed 	bl	2035b8 <__libc_exit_fini>
  203608:	94002f14 	bl	20f258 <__stdio_exit>
  20360c:	2a1303e0 	mov	w0, w19
  203610:	94002662 	bl	20cf98 <_Exit>
  203614:	00000000 	.inst	0x00000000 ; undefined

0000000000203618 <fcntl>:
  203618:	a9ba53f3 	stp	x19, x20, [sp, #-96]!
  20361c:	128000e3 	mov	w3, #0xfffffff8            	// #-8
  203620:	aa0203f3 	mov	x19, x2
  203624:	93407c14 	sxtw	x20, w0
  203628:	910143e4 	add	x4, sp, #0x50
  20362c:	910183e5 	add	x5, sp, #0x60
  203630:	f9000ffe 	str	x30, [sp, #24]
  203634:	7100103f 	cmp	w1, #0x4
  203638:	a90317e5 	stp	x5, x5, [sp, #48]
  20363c:	f90023e4 	str	x4, [sp, #64]
  203640:	29097fe3 	stp	w3, wzr, [sp, #72]
  203644:	f9002fe2 	str	x2, [sp, #88]
  203648:	540002c0 	b.eq	2036a0 <fcntl+0x88>  // b.none
  20364c:	71001c3f 	cmp	w1, #0x7
  203650:	54000300 	b.eq	2036b0 <fcntl+0x98>  // b.none
  203654:	7100243f 	cmp	w1, #0x9
  203658:	54000440 	b.eq	2036e0 <fcntl+0xc8>  // b.none
  20365c:	7110183f 	cmp	w1, #0x406
  203660:	54000600 	b.eq	203720 <fcntl+0x108>  // b.none
  203664:	f9000bf5 	str	x21, [sp, #16]
  203668:	93407c35 	sxtw	x21, w1
  20366c:	d2801ba0 	mov	x0, #0xdd                  	// #221
  203670:	94000b24 	bl	206300 <get_rtt_syscall>
  203674:	aa0003e3 	mov	x3, x0
  203678:	b4000ac0 	cbz	x0, 2037d0 <fcntl+0x1b8>
  20367c:	aa1303e2 	mov	x2, x19
  203680:	aa1503e1 	mov	x1, x21
  203684:	aa1403e0 	mov	x0, x20
  203688:	d63f0060 	blr	x3
  20368c:	94000b4d 	bl	2063c0 <__syscall_ret>
  203690:	f9400bf5 	ldr	x21, [sp, #16]
  203694:	f9400ffe 	ldr	x30, [sp, #24]
  203698:	a8c653f3 	ldp	x19, x20, [sp], #96
  20369c:	d65f03c0 	ret
  2036a0:	f9000bf5 	str	x21, [sp, #16]
  2036a4:	b26f0053 	orr	x19, x2, #0x20000
  2036a8:	d2800095 	mov	x21, #0x4                   	// #4
  2036ac:	17fffff0 	b	20366c <fcntl+0x54>
  2036b0:	aa0203e3 	mov	x3, x2
  2036b4:	aa1403e1 	mov	x1, x20
  2036b8:	d2800006 	mov	x6, #0x0                   	// #0
  2036bc:	d2800005 	mov	x5, #0x0                   	// #0
  2036c0:	d2800004 	mov	x4, #0x0                   	// #0
  2036c4:	d28000e2 	mov	x2, #0x7                   	// #7
  2036c8:	d2801ba0 	mov	x0, #0xdd                  	// #221
  2036cc:	94002039 	bl	20b7b0 <__syscall_cp>
  2036d0:	94000b3c 	bl	2063c0 <__syscall_ret>
  2036d4:	f9400ffe 	ldr	x30, [sp, #24]
  2036d8:	a8c653f3 	ldp	x19, x20, [sp], #96
  2036dc:	d65f03c0 	ret
  2036e0:	d2801ba0 	mov	x0, #0xdd                  	// #221
  2036e4:	94000b07 	bl	206300 <get_rtt_syscall>
  2036e8:	aa0003e3 	mov	x3, x0
  2036ec:	b4000100 	cbz	x0, 20370c <fcntl+0xf4>
  2036f0:	9100a3e2 	add	x2, sp, #0x28
  2036f4:	d2800201 	mov	x1, #0x10                  	// #16
  2036f8:	aa1403e0 	mov	x0, x20
  2036fc:	d63f0060 	blr	x3
  203700:	3100581f 	cmn	w0, #0x16
  203704:	54000520 	b.eq	2037a8 <fcntl+0x190>  // b.none
  203708:	35000480 	cbnz	w0, 203798 <fcntl+0x180>
  20370c:	294503e1 	ldp	w1, w0, [sp, #40]
  203710:	7100083f 	cmp	w1, #0x2
  203714:	5a801400 	cneg	w0, w0, eq  // eq = none
  203718:	17ffffdf 	b	203694 <fcntl+0x7c>
  20371c:	d503201f 	nop
  203720:	d2801ba0 	mov	x0, #0xdd                  	// #221
  203724:	94000af7 	bl	206300 <get_rtt_syscall>
  203728:	aa0003e3 	mov	x3, x0
  20372c:	b40001e0 	cbz	x0, 203768 <fcntl+0x150>
  203730:	aa1303e2 	mov	x2, x19
  203734:	d28080c1 	mov	x1, #0x406                 	// #1030
  203738:	aa1403e0 	mov	x0, x20
  20373c:	d63f0060 	blr	x3
  203740:	3100581f 	cmn	w0, #0x16
  203744:	540004a0 	b.eq	2037d8 <fcntl+0x1c0>  // b.none
  203748:	93407c13 	sxtw	x19, w0
  20374c:	aa1303f4 	mov	x20, x19
  203750:	36f80100 	tbz	w0, #31, 203770 <fcntl+0x158>
  203754:	aa1303e0 	mov	x0, x19
  203758:	94000b1a 	bl	2063c0 <__syscall_ret>
  20375c:	f9400ffe 	ldr	x30, [sp, #24]
  203760:	a8c653f3 	ldp	x19, x20, [sp], #96
  203764:	d65f03c0 	ret
  203768:	d2800013 	mov	x19, #0x0                   	// #0
  20376c:	d2800014 	mov	x20, #0x0                   	// #0
  203770:	d2801ba0 	mov	x0, #0xdd                  	// #221
  203774:	94000ae3 	bl	206300 <get_rtt_syscall>
  203778:	aa0003e3 	mov	x3, x0
  20377c:	b4fffec0 	cbz	x0, 203754 <fcntl+0x13c>
  203780:	d2800022 	mov	x2, #0x1                   	// #1
  203784:	d2800041 	mov	x1, #0x2                   	// #2
  203788:	aa1403e0 	mov	x0, x20
  20378c:	d63f0060 	blr	x3
  203790:	17fffff1 	b	203754 <fcntl+0x13c>
  203794:	d503201f 	nop
  203798:	93407c00 	sxtw	x0, w0
  20379c:	94000b09 	bl	2063c0 <__syscall_ret>
  2037a0:	17ffffbd 	b	203694 <fcntl+0x7c>
  2037a4:	d503201f 	nop
  2037a8:	d2801ba0 	mov	x0, #0xdd                  	// #221
  2037ac:	94000ad5 	bl	206300 <get_rtt_syscall>
  2037b0:	aa0003e3 	mov	x3, x0
  2037b4:	b40006a0 	cbz	x0, 203888 <fcntl+0x270>
  2037b8:	aa1303e2 	mov	x2, x19
  2037bc:	d2800121 	mov	x1, #0x9                   	// #9
  2037c0:	aa1403e0 	mov	x0, x20
  2037c4:	d63f0060 	blr	x3
  2037c8:	17ffffb3 	b	203694 <fcntl+0x7c>
  2037cc:	d503201f 	nop
  2037d0:	d2800000 	mov	x0, #0x0                   	// #0
  2037d4:	17ffffae 	b	20368c <fcntl+0x74>
  2037d8:	d2801ba0 	mov	x0, #0xdd                  	// #221
  2037dc:	94000ac9 	bl	206300 <get_rtt_syscall>
  2037e0:	aa0003e3 	mov	x3, x0
  2037e4:	b4000180 	cbz	x0, 203814 <fcntl+0x1fc>
  2037e8:	d2800002 	mov	x2, #0x0                   	// #0
  2037ec:	d28080c1 	mov	x1, #0x406                 	// #1030
  2037f0:	aa1403e0 	mov	x0, x20
  2037f4:	d63f0060 	blr	x3
  2037f8:	3100581f 	cmn	w0, #0x16
  2037fc:	540001c0 	b.eq	203834 <fcntl+0x21c>  // b.none
  203800:	93407c13 	sxtw	x19, w0
  203804:	36f800a0 	tbz	w0, #31, 203818 <fcntl+0x200>
  203808:	928002a0 	mov	x0, #0xffffffffffffffea    	// #-22
  20380c:	94000aed 	bl	2063c0 <__syscall_ret>
  203810:	17ffffa1 	b	203694 <fcntl+0x7c>
  203814:	d2800013 	mov	x19, #0x0                   	// #0
  203818:	d28000c0 	mov	x0, #0x6                   	// #6
  20381c:	94000ab9 	bl	206300 <get_rtt_syscall>
  203820:	aa0003e1 	mov	x1, x0
  203824:	b4ffff20 	cbz	x0, 203808 <fcntl+0x1f0>
  203828:	aa1303e0 	mov	x0, x19
  20382c:	d63f0020 	blr	x1
  203830:	17fffff6 	b	203808 <fcntl+0x1f0>
  203834:	d2801ba0 	mov	x0, #0xdd                  	// #221
  203838:	94000ab2 	bl	206300 <get_rtt_syscall>
  20383c:	aa0003e3 	mov	x3, x0
  203840:	b4000280 	cbz	x0, 203890 <fcntl+0x278>
  203844:	aa1303e2 	mov	x2, x19
  203848:	d2800001 	mov	x1, #0x0                   	// #0
  20384c:	aa1403e0 	mov	x0, x20
  203850:	d63f0060 	blr	x3
  203854:	93407c13 	sxtw	x19, w0
  203858:	aa1303e1 	mov	x1, x19
  20385c:	37fff7c0 	tbnz	w0, #31, 203754 <fcntl+0x13c>
  203860:	93407c33 	sxtw	x19, w1
  203864:	d2801ba0 	mov	x0, #0xdd                  	// #221
  203868:	94000aa6 	bl	206300 <get_rtt_syscall>
  20386c:	aa0003e3 	mov	x3, x0
  203870:	b4fff720 	cbz	x0, 203754 <fcntl+0x13c>
  203874:	d2800022 	mov	x2, #0x1                   	// #1
  203878:	d2800041 	mov	x1, #0x2                   	// #2
  20387c:	aa1303e0 	mov	x0, x19
  203880:	d63f0060 	blr	x3
  203884:	17ffffb4 	b	203754 <fcntl+0x13c>
  203888:	52800000 	mov	w0, #0x0                   	// #0
  20388c:	17ffff82 	b	203694 <fcntl+0x7c>
  203890:	52800001 	mov	w1, #0x0                   	// #0
  203894:	17fffff3 	b	203860 <fcntl+0x248>

0000000000203898 <__syscall>:
  203898:	14000aa8 	b	206338 <___syscall>

000000000020389c <syscall>:
  20389c:	2a0003e8 	mov	w8, w0
  2038a0:	aa0103e0 	mov	x0, x1
  2038a4:	aa0203e1 	mov	x1, x2
  2038a8:	aa0303e2 	mov	x2, x3
  2038ac:	aa0403e3 	mov	x3, x4
  2038b0:	aa0503e4 	mov	x4, x5
  2038b4:	aa0603e5 	mov	x5, x6
  2038b8:	aa0703e6 	mov	x6, x7
  2038bc:	d4000001 	svc	#0x0
  2038c0:	d65f03c0 	ret
  2038c4:	00000000 	.inst	0x00000000 ; undefined

00000000002038c8 <syscall_set_thread_area>:
  2038c8:	aa0003e1 	mov	x1, x0
  2038cc:	d2800f60 	mov	x0, #0x7b                  	// #123
  2038d0:	17fffff3 	b	20389c <syscall>
  2038d4:	00000000 	.inst	0x00000000 ; undefined

00000000002038d8 <syscall_mq_close>:
  2038d8:	93407c01 	sxtw	x1, w0
  2038dc:	d2801500 	mov	x0, #0xa8                  	// #168
  2038e0:	17ffffef 	b	20389c <syscall>
  2038e4:	00000000 	.inst	0x00000000 ; undefined

00000000002038e8 <syscall_shmdt>:
  2038e8:	aa0003e1 	mov	x1, x0
  2038ec:	d2802640 	mov	x0, #0x132                 	// #306
  2038f0:	17ffffeb 	b	20389c <syscall>
  2038f4:	00000000 	.inst	0x00000000 ; undefined

00000000002038f8 <syscall_mq_unlink>:
  2038f8:	aa0003e1 	mov	x1, x0
  2038fc:	d2801460 	mov	x0, #0xa3                  	// #163
  203900:	17ffffe7 	b	20389c <syscall>
  203904:	00000000 	.inst	0x00000000 ; undefined

0000000000203908 <syscall_timer_delete>:
  203908:	aa0003e1 	mov	x1, x0
  20390c:	d28013c0 	mov	x0, #0x9e                  	// #158
  203910:	17ffffe3 	b	20389c <syscall>
  203914:	00000000 	.inst	0x00000000 ; undefined

0000000000203918 <syscall_timer_getoverrun>:
  203918:	aa0003e1 	mov	x1, x0
  20391c:	d2801420 	mov	x0, #0xa1                  	// #161
  203920:	17ffffdf 	b	20389c <syscall>
  203924:	00000000 	.inst	0x00000000 ; undefined

0000000000203928 <syscall_set_tid_address>:
  203928:	aa0003e1 	mov	x1, x0
  20392c:	d2800f80 	mov	x0, #0x7c                  	// #124
  203930:	17ffffdb 	b	20389c <syscall>
  203934:	00000000 	.inst	0x00000000 ; undefined

0000000000203938 <syscall_exit_group>:
  203938:	93407c01 	sxtw	x1, w0
  20393c:	d2800c40 	mov	x0, #0x62                  	// #98
  203940:	17ffffd7 	b	20389c <syscall>
  203944:	00000000 	.inst	0x00000000 ; undefined

0000000000203948 <syscall_sched_get_priority_min>:
  203948:	93407c01 	sxtw	x1, w0
  20394c:	d28012e0 	mov	x0, #0x97                  	// #151
  203950:	17ffffd3 	b	20389c <syscall>
  203954:	00000000 	.inst	0x00000000 ; undefined

0000000000203958 <syscall_sched_get_priority_max>:
  203958:	93407c01 	sxtw	x1, w0
  20395c:	d28012c0 	mov	x0, #0x96                  	// #150
  203960:	17ffffcf 	b	20389c <syscall>
  203964:	00000000 	.inst	0x00000000 ; undefined

0000000000203968 <syscall_fsync>:
  203968:	93407c01 	sxtw	x1, w0
  20396c:	d2801360 	mov	x0, #0x9b                  	// #155
  203970:	17ffffcb 	b	20389c <syscall>
  203974:	00000000 	.inst	0x00000000 ; undefined

0000000000203978 <syscall_brk>:
  203978:	aa0003e1 	mov	x1, x0
  20397c:	d2800680 	mov	x0, #0x34                  	// #52
  203980:	17ffffc7 	b	20389c <syscall>
  203984:	00000000 	.inst	0x00000000 ; undefined

0000000000203988 <syscall_pipe>:
  203988:	aa0003e1 	mov	x1, x0
  20398c:	d2800fc0 	mov	x0, #0x7e                  	// #126
  203990:	17ffffc3 	b	20389c <syscall>
  203994:	00000000 	.inst	0x00000000 ; undefined

0000000000203998 <syscall_dup>:
  203998:	93407c01 	sxtw	x1, w0
  20399c:	d28010a0 	mov	x0, #0x85                  	// #133
  2039a0:	17ffffbf 	b	20389c <syscall>
  2039a4:	00000000 	.inst	0x00000000 ; undefined

00000000002039a8 <syscall_rmdir>:
  2039a8:	aa0003e1 	mov	x1, x0
  2039ac:	d2800f00 	mov	x0, #0x78                  	// #120
  2039b0:	17ffffbb 	b	20389c <syscall>
  2039b4:	00000000 	.inst	0x00000000 ; undefined

00000000002039b8 <syscall_chdir>:
  2039b8:	aa0003e1 	mov	x1, x0
  2039bc:	d2800ea0 	mov	x0, #0x75                  	// #117
  2039c0:	17ffffb7 	b	20389c <syscall>
  2039c4:	00000000 	.inst	0x00000000 ; undefined

00000000002039c8 <syscall_unlink>:
  2039c8:	aa0003e1 	mov	x1, x0
  2039cc:	d2800ec0 	mov	x0, #0x76                  	// #118
  2039d0:	17ffffb3 	b	20389c <syscall>
  2039d4:	00000000 	.inst	0x00000000 ; undefined

00000000002039d8 <syscall_close>:
  2039d8:	93407c01 	sxtw	x1, w0
  2039dc:	d28000c0 	mov	x0, #0x6                   	// #6
  2039e0:	17ffffaf 	b	20389c <syscall>
  2039e4:	00000000 	.inst	0x00000000 ; undefined

00000000002039e8 <syscall_exit>:
  2039e8:	93407c01 	sxtw	x1, w0
  2039ec:	d2800020 	mov	x0, #0x1                   	// #1
  2039f0:	17ffffab 	b	20389c <syscall>
  2039f4:	00000000 	.inst	0x00000000 ; undefined

00000000002039f8 <syscall_trace>:
  2039f8:	a9be53f3 	stp	x19, x20, [sp, #-32]!
  2039fc:	d28003a2 	mov	x2, #0x1d                  	// #29
  203a00:	aa0003f3 	mov	x19, x0
  203a04:	2a0103f4 	mov	w20, w1
  203a08:	f9000bfe 	str	x30, [sp, #16]
  203a0c:	b0000081 	adrp	x1, 214000 <syscall_table+0x800>
  203a10:	d2801fe0 	mov	x0, #0xff                  	// #255
  203a14:	91122021 	add	x1, x1, #0x488
  203a18:	97ffffa1 	bl	20389c <syscall>
  203a1c:	93407e82 	sxtw	x2, w20
  203a20:	aa1303e1 	mov	x1, x19
  203a24:	f9400bfe 	ldr	x30, [sp, #16]
  203a28:	d2801fe0 	mov	x0, #0xff                  	// #255
  203a2c:	a8c253f3 	ldp	x19, x20, [sp], #32
  203a30:	17ffff9b 	b	20389c <syscall>
  203a34:	00000000 	.inst	0x00000000 ; undefined

0000000000203a38 <syscall_io_pgetevents>:
  203a38:	f81f0ffe 	str	x30, [sp, #-16]!
  203a3c:	528002c1 	mov	w1, #0x16                  	// #22
  203a40:	90000080 	adrp	x0, 213000 <__FUNCTION__.5978+0x8>
  203a44:	911fa000 	add	x0, x0, #0x7e8
  203a48:	97ffffec 	bl	2039f8 <syscall_trace>
  203a4c:	d2800000 	mov	x0, #0x0                   	// #0
  203a50:	f84107fe 	ldr	x30, [sp], #16
  203a54:	d65f03c0 	ret

0000000000203a58 <syscall_rseq>:
  203a58:	f81f0ffe 	str	x30, [sp, #-16]!
  203a5c:	528001a1 	mov	w1, #0xd                   	// #13
  203a60:	90000080 	adrp	x0, 213000 <__FUNCTION__.5978+0x8>
  203a64:	911f6000 	add	x0, x0, #0x7d8
  203a68:	97ffffe4 	bl	2039f8 <syscall_trace>
  203a6c:	d2800000 	mov	x0, #0x0                   	// #0
  203a70:	f84107fe 	ldr	x30, [sp], #16
  203a74:	d65f03c0 	ret

0000000000203a78 <syscall_statx>:
  203a78:	f81f0ffe 	str	x30, [sp, #-16]!
  203a7c:	528001c1 	mov	w1, #0xe                   	// #14
  203a80:	90000080 	adrp	x0, 213000 <__FUNCTION__.5978+0x8>
  203a84:	911f2000 	add	x0, x0, #0x7c8
  203a88:	97ffffdc 	bl	2039f8 <syscall_trace>
  203a8c:	d2800000 	mov	x0, #0x0                   	// #0
  203a90:	f84107fe 	ldr	x30, [sp], #16
  203a94:	d65f03c0 	ret

0000000000203a98 <syscall_pkey_free>:
  203a98:	f81f0ffe 	str	x30, [sp, #-16]!
  203a9c:	52800241 	mov	w1, #0x12                  	// #18
  203aa0:	90000080 	adrp	x0, 213000 <__FUNCTION__.5978+0x8>
  203aa4:	911ec000 	add	x0, x0, #0x7b0
  203aa8:	97ffffd4 	bl	2039f8 <syscall_trace>
  203aac:	d2800000 	mov	x0, #0x0                   	// #0
  203ab0:	f84107fe 	ldr	x30, [sp], #16
  203ab4:	d65f03c0 	ret

0000000000203ab8 <syscall_pkey_alloc>:
  203ab8:	f81f0ffe 	str	x30, [sp, #-16]!
  203abc:	52800261 	mov	w1, #0x13                  	// #19
  203ac0:	90000080 	adrp	x0, 213000 <__FUNCTION__.5978+0x8>
  203ac4:	911e6000 	add	x0, x0, #0x798
  203ac8:	97ffffcc 	bl	2039f8 <syscall_trace>
  203acc:	d2800000 	mov	x0, #0x0                   	// #0
  203ad0:	f84107fe 	ldr	x30, [sp], #16
  203ad4:	d65f03c0 	ret

0000000000203ad8 <syscall_pkey_mprotect>:
  203ad8:	f81f0ffe 	str	x30, [sp, #-16]!
  203adc:	528002c1 	mov	w1, #0x16                  	// #22
  203ae0:	90000080 	adrp	x0, 213000 <__FUNCTION__.5978+0x8>
  203ae4:	911e0000 	add	x0, x0, #0x780
  203ae8:	97ffffc4 	bl	2039f8 <syscall_trace>
  203aec:	d2800000 	mov	x0, #0x0                   	// #0
  203af0:	f84107fe 	ldr	x30, [sp], #16
  203af4:	d65f03c0 	ret

0000000000203af8 <syscall_pwritev2>:
  203af8:	f81f0ffe 	str	x30, [sp, #-16]!
  203afc:	52800221 	mov	w1, #0x11                  	// #17
  203b00:	90000080 	adrp	x0, 213000 <__FUNCTION__.5978+0x8>
  203b04:	911da000 	add	x0, x0, #0x768
  203b08:	97ffffbc 	bl	2039f8 <syscall_trace>
  203b0c:	d2800000 	mov	x0, #0x0                   	// #0
  203b10:	f84107fe 	ldr	x30, [sp], #16
  203b14:	d65f03c0 	ret

0000000000203b18 <syscall_preadv2>:
  203b18:	f81f0ffe 	str	x30, [sp, #-16]!
  203b1c:	52800201 	mov	w1, #0x10                  	// #16
  203b20:	90000080 	adrp	x0, 213000 <__FUNCTION__.5978+0x8>
  203b24:	911d6000 	add	x0, x0, #0x758
  203b28:	97ffffb4 	bl	2039f8 <syscall_trace>
  203b2c:	d2800000 	mov	x0, #0x0                   	// #0
  203b30:	f84107fe 	ldr	x30, [sp], #16
  203b34:	d65f03c0 	ret

0000000000203b38 <syscall_copy_file_range>:
  203b38:	f81f0ffe 	str	x30, [sp, #-16]!
  203b3c:	52800301 	mov	w1, #0x18                  	// #24
  203b40:	90000080 	adrp	x0, 213000 <__FUNCTION__.5978+0x8>
  203b44:	911d0000 	add	x0, x0, #0x740
  203b48:	97ffffac 	bl	2039f8 <syscall_trace>
  203b4c:	d2800000 	mov	x0, #0x0                   	// #0
  203b50:	f84107fe 	ldr	x30, [sp], #16
  203b54:	d65f03c0 	ret

0000000000203b58 <syscall_mlock2>:
  203b58:	f81f0ffe 	str	x30, [sp, #-16]!
  203b5c:	528001e1 	mov	w1, #0xf                   	// #15
  203b60:	90000080 	adrp	x0, 213000 <__FUNCTION__.5978+0x8>
  203b64:	911cc000 	add	x0, x0, #0x730
  203b68:	97ffffa4 	bl	2039f8 <syscall_trace>
  203b6c:	d2800000 	mov	x0, #0x0                   	// #0
  203b70:	f84107fe 	ldr	x30, [sp], #16
  203b74:	d65f03c0 	ret

0000000000203b78 <syscall_membarrier>:
  203b78:	f81f0ffe 	str	x30, [sp, #-16]!
  203b7c:	52800261 	mov	w1, #0x13                  	// #19
  203b80:	90000080 	adrp	x0, 213000 <__FUNCTION__.5978+0x8>
  203b84:	911c6000 	add	x0, x0, #0x718
  203b88:	97ffff9c 	bl	2039f8 <syscall_trace>
  203b8c:	d2800000 	mov	x0, #0x0                   	// #0
  203b90:	f84107fe 	ldr	x30, [sp], #16
  203b94:	d65f03c0 	ret

0000000000203b98 <syscall_userfaultfd>:
  203b98:	f81f0ffe 	str	x30, [sp, #-16]!
  203b9c:	52800281 	mov	w1, #0x14                  	// #20
  203ba0:	90000080 	adrp	x0, 213000 <__FUNCTION__.5978+0x8>
  203ba4:	911c0000 	add	x0, x0, #0x700
  203ba8:	97ffff94 	bl	2039f8 <syscall_trace>
  203bac:	d2800000 	mov	x0, #0x0                   	// #0
  203bb0:	f84107fe 	ldr	x30, [sp], #16
  203bb4:	d65f03c0 	ret

0000000000203bb8 <syscall_execveat>:
  203bb8:	f81f0ffe 	str	x30, [sp, #-16]!
  203bbc:	52800221 	mov	w1, #0x11                  	// #17
  203bc0:	90000080 	adrp	x0, 213000 <__FUNCTION__.5978+0x8>
  203bc4:	911ba000 	add	x0, x0, #0x6e8
  203bc8:	97ffff8c 	bl	2039f8 <syscall_trace>
  203bcc:	d2800000 	mov	x0, #0x0                   	// #0
  203bd0:	f84107fe 	ldr	x30, [sp], #16
  203bd4:	d65f03c0 	ret

0000000000203bd8 <syscall_bpf>:
  203bd8:	f81f0ffe 	str	x30, [sp, #-16]!
  203bdc:	52800181 	mov	w1, #0xc                   	// #12
  203be0:	90000080 	adrp	x0, 213000 <__FUNCTION__.5978+0x8>
  203be4:	911b6000 	add	x0, x0, #0x6d8
  203be8:	97ffff84 	bl	2039f8 <syscall_trace>
  203bec:	d2800000 	mov	x0, #0x0                   	// #0
  203bf0:	f84107fe 	ldr	x30, [sp], #16
  203bf4:	d65f03c0 	ret

0000000000203bf8 <syscall_memfd_create>:
  203bf8:	f81f0ffe 	str	x30, [sp, #-16]!
  203bfc:	528002a1 	mov	w1, #0x15                  	// #21
  203c00:	90000080 	adrp	x0, 213000 <__FUNCTION__.5978+0x8>
  203c04:	911b0000 	add	x0, x0, #0x6c0
  203c08:	97ffff7c 	bl	2039f8 <syscall_trace>
  203c0c:	d2800000 	mov	x0, #0x0                   	// #0
  203c10:	f84107fe 	ldr	x30, [sp], #16
  203c14:	d65f03c0 	ret

0000000000203c18 <syscall_seccomp>:
  203c18:	f81f0ffe 	str	x30, [sp, #-16]!
  203c1c:	52800201 	mov	w1, #0x10                  	// #16
  203c20:	90000080 	adrp	x0, 213000 <__FUNCTION__.5978+0x8>
  203c24:	911ac000 	add	x0, x0, #0x6b0
  203c28:	97ffff74 	bl	2039f8 <syscall_trace>
  203c2c:	d2800000 	mov	x0, #0x0                   	// #0
  203c30:	f84107fe 	ldr	x30, [sp], #16
  203c34:	d65f03c0 	ret

0000000000203c38 <syscall_renameat2>:
  203c38:	f81f0ffe 	str	x30, [sp, #-16]!
  203c3c:	52800241 	mov	w1, #0x12                  	// #18
  203c40:	90000080 	adrp	x0, 213000 <__FUNCTION__.5978+0x8>
  203c44:	911a6000 	add	x0, x0, #0x698
  203c48:	97ffff6c 	bl	2039f8 <syscall_trace>
  203c4c:	d2800000 	mov	x0, #0x0                   	// #0
  203c50:	f84107fe 	ldr	x30, [sp], #16
  203c54:	d65f03c0 	ret

0000000000203c58 <syscall_sched_getattr>:
  203c58:	f81f0ffe 	str	x30, [sp, #-16]!
  203c5c:	528002c1 	mov	w1, #0x16                  	// #22
  203c60:	90000080 	adrp	x0, 213000 <__FUNCTION__.5978+0x8>
  203c64:	911a0000 	add	x0, x0, #0x680
  203c68:	97ffff64 	bl	2039f8 <syscall_trace>
  203c6c:	d2800000 	mov	x0, #0x0                   	// #0
  203c70:	f84107fe 	ldr	x30, [sp], #16
  203c74:	d65f03c0 	ret

0000000000203c78 <syscall_sched_setattr>:
  203c78:	f81f0ffe 	str	x30, [sp, #-16]!
  203c7c:	528002c1 	mov	w1, #0x16                  	// #22
  203c80:	90000080 	adrp	x0, 213000 <__FUNCTION__.5978+0x8>
  203c84:	9119a000 	add	x0, x0, #0x668
  203c88:	97ffff5c 	bl	2039f8 <syscall_trace>
  203c8c:	d2800000 	mov	x0, #0x0                   	// #0
  203c90:	f84107fe 	ldr	x30, [sp], #16
  203c94:	d65f03c0 	ret

0000000000203c98 <syscall_finit_module>:
  203c98:	f81f0ffe 	str	x30, [sp, #-16]!
  203c9c:	528002a1 	mov	w1, #0x15                  	// #21
  203ca0:	90000080 	adrp	x0, 213000 <__FUNCTION__.5978+0x8>
  203ca4:	91194000 	add	x0, x0, #0x650
  203ca8:	97ffff54 	bl	2039f8 <syscall_trace>
  203cac:	d2800000 	mov	x0, #0x0                   	// #0
  203cb0:	f84107fe 	ldr	x30, [sp], #16
  203cb4:	d65f03c0 	ret

0000000000203cb8 <syscall_kcmp>:
  203cb8:	f81f0ffe 	str	x30, [sp, #-16]!
  203cbc:	528001a1 	mov	w1, #0xd                   	// #13
  203cc0:	90000080 	adrp	x0, 213000 <__FUNCTION__.5978+0x8>
  203cc4:	91190000 	add	x0, x0, #0x640
  203cc8:	97ffff4c 	bl	2039f8 <syscall_trace>
  203ccc:	d2800000 	mov	x0, #0x0                   	// #0
  203cd0:	f84107fe 	ldr	x30, [sp], #16
  203cd4:	d65f03c0 	ret

0000000000203cd8 <syscall_process_vm_writev>:
  203cd8:	f81f0ffe 	str	x30, [sp, #-16]!
  203cdc:	52800341 	mov	w1, #0x1a                  	// #26
  203ce0:	90000080 	adrp	x0, 213000 <__FUNCTION__.5978+0x8>
  203ce4:	91188000 	add	x0, x0, #0x620
  203ce8:	97ffff44 	bl	2039f8 <syscall_trace>
  203cec:	d2800000 	mov	x0, #0x0                   	// #0
  203cf0:	f84107fe 	ldr	x30, [sp], #16
  203cf4:	d65f03c0 	ret

0000000000203cf8 <syscall_process_vm_readv>:
  203cf8:	f81f0ffe 	str	x30, [sp, #-16]!
  203cfc:	52800321 	mov	w1, #0x19                  	// #25
  203d00:	90000080 	adrp	x0, 213000 <__FUNCTION__.5978+0x8>
  203d04:	91180000 	add	x0, x0, #0x600
  203d08:	97ffff3c 	bl	2039f8 <syscall_trace>
  203d0c:	d2800000 	mov	x0, #0x0                   	// #0
  203d10:	f84107fe 	ldr	x30, [sp], #16
  203d14:	d65f03c0 	ret

0000000000203d18 <syscall_setns>:
  203d18:	f81f0ffe 	str	x30, [sp, #-16]!
  203d1c:	528001c1 	mov	w1, #0xe                   	// #14
  203d20:	90000080 	adrp	x0, 213000 <__FUNCTION__.5978+0x8>
  203d24:	9117c000 	add	x0, x0, #0x5f0
  203d28:	97ffff34 	bl	2039f8 <syscall_trace>
  203d2c:	d2800000 	mov	x0, #0x0                   	// #0
  203d30:	f84107fe 	ldr	x30, [sp], #16
  203d34:	d65f03c0 	ret

0000000000203d38 <syscall_sendmmsg>:
  203d38:	f81f0ffe 	str	x30, [sp, #-16]!
  203d3c:	52800221 	mov	w1, #0x11                  	// #17
  203d40:	90000080 	adrp	x0, 213000 <__FUNCTION__.5978+0x8>
  203d44:	91176000 	add	x0, x0, #0x5d8
  203d48:	97ffff2c 	bl	2039f8 <syscall_trace>
  203d4c:	d2800000 	mov	x0, #0x0                   	// #0
  203d50:	f84107fe 	ldr	x30, [sp], #16
  203d54:	d65f03c0 	ret

0000000000203d58 <syscall_syncfs>:
  203d58:	f81f0ffe 	str	x30, [sp, #-16]!
  203d5c:	528001e1 	mov	w1, #0xf                   	// #15
  203d60:	90000080 	adrp	x0, 213000 <__FUNCTION__.5978+0x8>
  203d64:	91172000 	add	x0, x0, #0x5c8
  203d68:	97ffff24 	bl	2039f8 <syscall_trace>
  203d6c:	d2800000 	mov	x0, #0x0                   	// #0
  203d70:	f84107fe 	ldr	x30, [sp], #16
  203d74:	d65f03c0 	ret

0000000000203d78 <syscall_clock_adjtime>:
  203d78:	f81f0ffe 	str	x30, [sp, #-16]!
  203d7c:	528002c1 	mov	w1, #0x16                  	// #22
  203d80:	90000080 	adrp	x0, 213000 <__FUNCTION__.5978+0x8>
  203d84:	9116c000 	add	x0, x0, #0x5b0
  203d88:	97ffff1c 	bl	2039f8 <syscall_trace>
  203d8c:	d2800000 	mov	x0, #0x0                   	// #0
  203d90:	f84107fe 	ldr	x30, [sp], #16
  203d94:	d65f03c0 	ret

0000000000203d98 <syscall_open_by_handle_at>:
  203d98:	f81f0ffe 	str	x30, [sp, #-16]!
  203d9c:	52800341 	mov	w1, #0x1a                  	// #26
  203da0:	90000080 	adrp	x0, 213000 <__FUNCTION__.5978+0x8>
  203da4:	91164000 	add	x0, x0, #0x590
  203da8:	97ffff14 	bl	2039f8 <syscall_trace>
  203dac:	d2800000 	mov	x0, #0x0                   	// #0
  203db0:	f84107fe 	ldr	x30, [sp], #16
  203db4:	d65f03c0 	ret

0000000000203db8 <syscall_name_to_handle_at>:
  203db8:	f81f0ffe 	str	x30, [sp, #-16]!
  203dbc:	52800341 	mov	w1, #0x1a                  	// #26
  203dc0:	90000080 	adrp	x0, 213000 <__FUNCTION__.5978+0x8>
  203dc4:	9115c000 	add	x0, x0, #0x570
  203dc8:	97ffff0c 	bl	2039f8 <syscall_trace>
  203dcc:	d2800000 	mov	x0, #0x0                   	// #0
  203dd0:	f84107fe 	ldr	x30, [sp], #16
  203dd4:	d65f03c0 	ret

0000000000203dd8 <syscall_fanotify_mark>:
  203dd8:	f81f0ffe 	str	x30, [sp, #-16]!
  203ddc:	528002c1 	mov	w1, #0x16                  	// #22
  203de0:	90000080 	adrp	x0, 213000 <__FUNCTION__.5978+0x8>
  203de4:	91156000 	add	x0, x0, #0x558
  203de8:	97ffff04 	bl	2039f8 <syscall_trace>
  203dec:	d2800000 	mov	x0, #0x0                   	// #0
  203df0:	f84107fe 	ldr	x30, [sp], #16
  203df4:	d65f03c0 	ret

0000000000203df8 <syscall_fanotify_init>:
  203df8:	f81f0ffe 	str	x30, [sp, #-16]!
  203dfc:	528002c1 	mov	w1, #0x16                  	// #22
  203e00:	90000080 	adrp	x0, 213000 <__FUNCTION__.5978+0x8>
  203e04:	91150000 	add	x0, x0, #0x540
  203e08:	97fffefc 	bl	2039f8 <syscall_trace>
  203e0c:	d2800000 	mov	x0, #0x0                   	// #0
  203e10:	f84107fe 	ldr	x30, [sp], #16
  203e14:	d65f03c0 	ret

0000000000203e18 <syscall_accept4>:
  203e18:	f81f0ffe 	str	x30, [sp, #-16]!
  203e1c:	52800201 	mov	w1, #0x10                  	// #16
  203e20:	90000080 	adrp	x0, 213000 <__FUNCTION__.5978+0x8>
  203e24:	9114c000 	add	x0, x0, #0x530
  203e28:	97fffef4 	bl	2039f8 <syscall_trace>
  203e2c:	d2800000 	mov	x0, #0x0                   	// #0
  203e30:	f84107fe 	ldr	x30, [sp], #16
  203e34:	d65f03c0 	ret

0000000000203e38 <syscall_recvmmsg>:
  203e38:	f81f0ffe 	str	x30, [sp, #-16]!
  203e3c:	52800221 	mov	w1, #0x11                  	// #17
  203e40:	90000080 	adrp	x0, 213000 <__FUNCTION__.5978+0x8>
  203e44:	91146000 	add	x0, x0, #0x518
  203e48:	97fffeec 	bl	2039f8 <syscall_trace>
  203e4c:	d2800000 	mov	x0, #0x0                   	// #0
  203e50:	f84107fe 	ldr	x30, [sp], #16
  203e54:	d65f03c0 	ret

0000000000203e58 <syscall_perf_event_open>:
  203e58:	f81f0ffe 	str	x30, [sp, #-16]!
  203e5c:	52800301 	mov	w1, #0x18                  	// #24
  203e60:	90000080 	adrp	x0, 213000 <__FUNCTION__.5978+0x8>
  203e64:	91140000 	add	x0, x0, #0x500
  203e68:	97fffee4 	bl	2039f8 <syscall_trace>
  203e6c:	d2800000 	mov	x0, #0x0                   	// #0
  203e70:	f84107fe 	ldr	x30, [sp], #16
  203e74:	d65f03c0 	ret

0000000000203e78 <syscall_rt_tgsigqueueinfo>:
  203e78:	f81f0ffe 	str	x30, [sp, #-16]!
  203e7c:	52800341 	mov	w1, #0x1a                  	// #26
  203e80:	90000080 	adrp	x0, 213000 <__FUNCTION__.5978+0x8>
  203e84:	91138000 	add	x0, x0, #0x4e0
  203e88:	97fffedc 	bl	2039f8 <syscall_trace>
  203e8c:	d2800000 	mov	x0, #0x0                   	// #0
  203e90:	f84107fe 	ldr	x30, [sp], #16
  203e94:	d65f03c0 	ret

0000000000203e98 <syscall_pwritev>:
  203e98:	f81f0ffe 	str	x30, [sp, #-16]!
  203e9c:	52800201 	mov	w1, #0x10                  	// #16
  203ea0:	90000080 	adrp	x0, 213000 <__FUNCTION__.5978+0x8>
  203ea4:	91134000 	add	x0, x0, #0x4d0
  203ea8:	97fffed4 	bl	2039f8 <syscall_trace>
  203eac:	d2800000 	mov	x0, #0x0                   	// #0
  203eb0:	f84107fe 	ldr	x30, [sp], #16
  203eb4:	d65f03c0 	ret

0000000000203eb8 <syscall_preadv>:
  203eb8:	f81f0ffe 	str	x30, [sp, #-16]!
  203ebc:	528001e1 	mov	w1, #0xf                   	// #15
  203ec0:	90000080 	adrp	x0, 213000 <__FUNCTION__.5978+0x8>
  203ec4:	91130000 	add	x0, x0, #0x4c0
  203ec8:	97fffecc 	bl	2039f8 <syscall_trace>
  203ecc:	d2800000 	mov	x0, #0x0                   	// #0
  203ed0:	f84107fe 	ldr	x30, [sp], #16
  203ed4:	d65f03c0 	ret

0000000000203ed8 <syscall_inotify_init1>:
  203ed8:	f81f0ffe 	str	x30, [sp, #-16]!
  203edc:	528002c1 	mov	w1, #0x16                  	// #22
  203ee0:	90000080 	adrp	x0, 213000 <__FUNCTION__.5978+0x8>
  203ee4:	9112a000 	add	x0, x0, #0x4a8
  203ee8:	97fffec4 	bl	2039f8 <syscall_trace>
  203eec:	d2800000 	mov	x0, #0x0                   	// #0
  203ef0:	f84107fe 	ldr	x30, [sp], #16
  203ef4:	d65f03c0 	ret

0000000000203ef8 <syscall_pipe2>:
  203ef8:	f81f0ffe 	str	x30, [sp, #-16]!
  203efc:	528001c1 	mov	w1, #0xe                   	// #14
  203f00:	90000080 	adrp	x0, 213000 <__FUNCTION__.5978+0x8>
  203f04:	91126000 	add	x0, x0, #0x498
  203f08:	97fffebc 	bl	2039f8 <syscall_trace>
  203f0c:	d2800000 	mov	x0, #0x0                   	// #0
  203f10:	f84107fe 	ldr	x30, [sp], #16
  203f14:	d65f03c0 	ret

0000000000203f18 <syscall_dup3>:
  203f18:	f81f0ffe 	str	x30, [sp, #-16]!
  203f1c:	528001a1 	mov	w1, #0xd                   	// #13
  203f20:	90000080 	adrp	x0, 213000 <__FUNCTION__.5978+0x8>
  203f24:	91122000 	add	x0, x0, #0x488
  203f28:	97fffeb4 	bl	2039f8 <syscall_trace>
  203f2c:	d2800000 	mov	x0, #0x0                   	// #0
  203f30:	f84107fe 	ldr	x30, [sp], #16
  203f34:	d65f03c0 	ret

0000000000203f38 <syscall_epoll_create1>:
  203f38:	f81f0ffe 	str	x30, [sp, #-16]!
  203f3c:	528002c1 	mov	w1, #0x16                  	// #22
  203f40:	90000080 	adrp	x0, 213000 <__FUNCTION__.5978+0x8>
  203f44:	9111c000 	add	x0, x0, #0x470
  203f48:	97fffeac 	bl	2039f8 <syscall_trace>
  203f4c:	928004a0 	mov	x0, #0xffffffffffffffda    	// #-38
  203f50:	f84107fe 	ldr	x30, [sp], #16
  203f54:	d65f03c0 	ret

0000000000203f58 <syscall_eventfd2>:
  203f58:	f81f0ffe 	str	x30, [sp, #-16]!
  203f5c:	52800221 	mov	w1, #0x11                  	// #17
  203f60:	90000080 	adrp	x0, 213000 <__FUNCTION__.5978+0x8>
  203f64:	91116000 	add	x0, x0, #0x458
  203f68:	97fffea4 	bl	2039f8 <syscall_trace>
  203f6c:	d2800000 	mov	x0, #0x0                   	// #0
  203f70:	f84107fe 	ldr	x30, [sp], #16
  203f74:	d65f03c0 	ret

0000000000203f78 <syscall_signalfd4>:
  203f78:	f81f0ffe 	str	x30, [sp, #-16]!
  203f7c:	52800241 	mov	w1, #0x12                  	// #18
  203f80:	90000080 	adrp	x0, 213000 <__FUNCTION__.5978+0x8>
  203f84:	91110000 	add	x0, x0, #0x440
  203f88:	97fffe9c 	bl	2039f8 <syscall_trace>
  203f8c:	d2800000 	mov	x0, #0x0                   	// #0
  203f90:	f84107fe 	ldr	x30, [sp], #16
  203f94:	d65f03c0 	ret

0000000000203f98 <syscall_timerfd_gettime>:
  203f98:	f81f0ffe 	str	x30, [sp, #-16]!
  203f9c:	52800301 	mov	w1, #0x18                  	// #24
  203fa0:	90000080 	adrp	x0, 213000 <__FUNCTION__.5978+0x8>
  203fa4:	9110a000 	add	x0, x0, #0x428
  203fa8:	97fffe94 	bl	2039f8 <syscall_trace>
  203fac:	d2800000 	mov	x0, #0x0                   	// #0
  203fb0:	f84107fe 	ldr	x30, [sp], #16
  203fb4:	d65f03c0 	ret

0000000000203fb8 <syscall_timerfd_settime>:
  203fb8:	f81f0ffe 	str	x30, [sp, #-16]!
  203fbc:	52800301 	mov	w1, #0x18                  	// #24
  203fc0:	90000080 	adrp	x0, 213000 <__FUNCTION__.5978+0x8>
  203fc4:	91104000 	add	x0, x0, #0x410
  203fc8:	97fffe8c 	bl	2039f8 <syscall_trace>
  203fcc:	d2800000 	mov	x0, #0x0                   	// #0
  203fd0:	f84107fe 	ldr	x30, [sp], #16
  203fd4:	d65f03c0 	ret

0000000000203fd8 <syscall_fallocate>:
  203fd8:	f81f0ffe 	str	x30, [sp, #-16]!
  203fdc:	52800241 	mov	w1, #0x12                  	// #18
  203fe0:	90000080 	adrp	x0, 213000 <__FUNCTION__.5978+0x8>
  203fe4:	910fe000 	add	x0, x0, #0x3f8
  203fe8:	97fffe84 	bl	2039f8 <syscall_trace>
  203fec:	d2800000 	mov	x0, #0x0                   	// #0
  203ff0:	f84107fe 	ldr	x30, [sp], #16
  203ff4:	d65f03c0 	ret

0000000000203ff8 <syscall_eventfd>:
  203ff8:	f81f0ffe 	str	x30, [sp, #-16]!
  203ffc:	52800201 	mov	w1, #0x10                  	// #16
  204000:	f0000060 	adrp	x0, 213000 <__FUNCTION__.5978+0x8>
  204004:	910fa000 	add	x0, x0, #0x3e8
  204008:	97fffe7c 	bl	2039f8 <syscall_trace>
  20400c:	d2800000 	mov	x0, #0x0                   	// #0
  204010:	f84107fe 	ldr	x30, [sp], #16
  204014:	d65f03c0 	ret

0000000000204018 <syscall_timerfd_create>:
  204018:	f81f0ffe 	str	x30, [sp, #-16]!
  20401c:	528002e1 	mov	w1, #0x17                  	// #23
  204020:	f0000060 	adrp	x0, 213000 <__FUNCTION__.5978+0x8>
  204024:	910f4000 	add	x0, x0, #0x3d0
  204028:	97fffe74 	bl	2039f8 <syscall_trace>
  20402c:	d2800000 	mov	x0, #0x0                   	// #0
  204030:	f84107fe 	ldr	x30, [sp], #16
  204034:	d65f03c0 	ret

0000000000204038 <syscall_signalfd>:
  204038:	f81f0ffe 	str	x30, [sp, #-16]!
  20403c:	52800221 	mov	w1, #0x11                  	// #17
  204040:	f0000060 	adrp	x0, 213000 <__FUNCTION__.5978+0x8>
  204044:	910ee000 	add	x0, x0, #0x3b8
  204048:	97fffe6c 	bl	2039f8 <syscall_trace>
  20404c:	d2800000 	mov	x0, #0x0                   	// #0
  204050:	f84107fe 	ldr	x30, [sp], #16
  204054:	d65f03c0 	ret

0000000000204058 <syscall_utimensat>:
  204058:	f81f0ffe 	str	x30, [sp, #-16]!
  20405c:	52800241 	mov	w1, #0x12                  	// #18
  204060:	f0000060 	adrp	x0, 213000 <__FUNCTION__.5978+0x8>
  204064:	910e8000 	add	x0, x0, #0x3a0
  204068:	97fffe64 	bl	2039f8 <syscall_trace>
  20406c:	d2800000 	mov	x0, #0x0                   	// #0
  204070:	f84107fe 	ldr	x30, [sp], #16
  204074:	d65f03c0 	ret

0000000000204078 <syscall_kexec_load>:
  204078:	f81f0ffe 	str	x30, [sp, #-16]!
  20407c:	52800261 	mov	w1, #0x13                  	// #19
  204080:	f0000060 	adrp	x0, 213000 <__FUNCTION__.5978+0x8>
  204084:	910e2000 	add	x0, x0, #0x388
  204088:	97fffe5c 	bl	2039f8 <syscall_trace>
  20408c:	d2800000 	mov	x0, #0x0                   	// #0
  204090:	f84107fe 	ldr	x30, [sp], #16
  204094:	d65f03c0 	ret

0000000000204098 <syscall_epoll_pwait>:
  204098:	f81f0ffe 	str	x30, [sp, #-16]!
  20409c:	52800281 	mov	w1, #0x14                  	// #20
  2040a0:	f0000060 	adrp	x0, 213000 <__FUNCTION__.5978+0x8>
  2040a4:	910dc000 	add	x0, x0, #0x370
  2040a8:	97fffe54 	bl	2039f8 <syscall_trace>
  2040ac:	928004a0 	mov	x0, #0xffffffffffffffda    	// #-38
  2040b0:	f84107fe 	ldr	x30, [sp], #16
  2040b4:	d65f03c0 	ret

00000000002040b8 <syscall_getcpu>:
  2040b8:	f81f0ffe 	str	x30, [sp, #-16]!
  2040bc:	528001e1 	mov	w1, #0xf                   	// #15
  2040c0:	f0000060 	adrp	x0, 213000 <__FUNCTION__.5978+0x8>
  2040c4:	910d8000 	add	x0, x0, #0x360
  2040c8:	97fffe4c 	bl	2039f8 <syscall_trace>
  2040cc:	d2800000 	mov	x0, #0x0                   	// #0
  2040d0:	f84107fe 	ldr	x30, [sp], #16
  2040d4:	d65f03c0 	ret

00000000002040d8 <syscall_move_pages>:
  2040d8:	f81f0ffe 	str	x30, [sp, #-16]!
  2040dc:	52800261 	mov	w1, #0x13                  	// #19
  2040e0:	f0000060 	adrp	x0, 213000 <__FUNCTION__.5978+0x8>
  2040e4:	910d2000 	add	x0, x0, #0x348
  2040e8:	97fffe44 	bl	2039f8 <syscall_trace>
  2040ec:	d2800000 	mov	x0, #0x0                   	// #0
  2040f0:	f84107fe 	ldr	x30, [sp], #16
  2040f4:	d65f03c0 	ret

00000000002040f8 <syscall_vmsplice>:
  2040f8:	f81f0ffe 	str	x30, [sp, #-16]!
  2040fc:	52800221 	mov	w1, #0x11                  	// #17
  204100:	f0000060 	adrp	x0, 213000 <__FUNCTION__.5978+0x8>
  204104:	910cc000 	add	x0, x0, #0x330
  204108:	97fffe3c 	bl	2039f8 <syscall_trace>
  20410c:	d2800000 	mov	x0, #0x0                   	// #0
  204110:	f84107fe 	ldr	x30, [sp], #16
  204114:	d65f03c0 	ret

0000000000204118 <syscall_tee>:
  204118:	f81f0ffe 	str	x30, [sp, #-16]!
  20411c:	52800181 	mov	w1, #0xc                   	// #12
  204120:	f0000060 	adrp	x0, 213000 <__FUNCTION__.5978+0x8>
  204124:	910c8000 	add	x0, x0, #0x320
  204128:	97fffe34 	bl	2039f8 <syscall_trace>
  20412c:	d2800000 	mov	x0, #0x0                   	// #0
  204130:	f84107fe 	ldr	x30, [sp], #16
  204134:	d65f03c0 	ret

0000000000204138 <syscall_arm_sync_file_range>:
  204138:	f81f0ffe 	str	x30, [sp, #-16]!
  20413c:	52800381 	mov	w1, #0x1c                  	// #28
  204140:	f0000060 	adrp	x0, 213000 <__FUNCTION__.5978+0x8>
  204144:	910c0000 	add	x0, x0, #0x300
  204148:	97fffe2c 	bl	2039f8 <syscall_trace>
  20414c:	d2800000 	mov	x0, #0x0                   	// #0
  204150:	f84107fe 	ldr	x30, [sp], #16
  204154:	d65f03c0 	ret

0000000000204158 <syscall_splice>:
  204158:	f81f0ffe 	str	x30, [sp, #-16]!
  20415c:	528001e1 	mov	w1, #0xf                   	// #15
  204160:	f0000060 	adrp	x0, 213000 <__FUNCTION__.5978+0x8>
  204164:	910bc000 	add	x0, x0, #0x2f0
  204168:	97fffe24 	bl	2039f8 <syscall_trace>
  20416c:	d2800000 	mov	x0, #0x0                   	// #0
  204170:	f84107fe 	ldr	x30, [sp], #16
  204174:	d65f03c0 	ret

0000000000204178 <syscall_get_robust_list>:
  204178:	f81f0ffe 	str	x30, [sp, #-16]!
  20417c:	52800301 	mov	w1, #0x18                  	// #24
  204180:	f0000060 	adrp	x0, 213000 <__FUNCTION__.5978+0x8>
  204184:	910b6000 	add	x0, x0, #0x2d8
  204188:	97fffe1c 	bl	2039f8 <syscall_trace>
  20418c:	d2800000 	mov	x0, #0x0                   	// #0
  204190:	f84107fe 	ldr	x30, [sp], #16
  204194:	d65f03c0 	ret

0000000000204198 <syscall_set_robust_list>:
  204198:	f81f0ffe 	str	x30, [sp, #-16]!
  20419c:	52800301 	mov	w1, #0x18                  	// #24
  2041a0:	f0000060 	adrp	x0, 213000 <__FUNCTION__.5978+0x8>
  2041a4:	910b0000 	add	x0, x0, #0x2c0
  2041a8:	97fffe14 	bl	2039f8 <syscall_trace>
  2041ac:	d2800000 	mov	x0, #0x0                   	// #0
  2041b0:	f84107fe 	ldr	x30, [sp], #16
  2041b4:	d65f03c0 	ret

00000000002041b8 <syscall_unshare>:
  2041b8:	f81f0ffe 	str	x30, [sp, #-16]!
  2041bc:	52800201 	mov	w1, #0x10                  	// #16
  2041c0:	f0000060 	adrp	x0, 213000 <__FUNCTION__.5978+0x8>
  2041c4:	910ac000 	add	x0, x0, #0x2b0
  2041c8:	97fffe0c 	bl	2039f8 <syscall_trace>
  2041cc:	d2800000 	mov	x0, #0x0                   	// #0
  2041d0:	f84107fe 	ldr	x30, [sp], #16
  2041d4:	d65f03c0 	ret

00000000002041d8 <syscall_ppoll>:
  2041d8:	f81f0ffe 	str	x30, [sp, #-16]!
  2041dc:	528001c1 	mov	w1, #0xe                   	// #14
  2041e0:	f0000060 	adrp	x0, 213000 <__FUNCTION__.5978+0x8>
  2041e4:	910a8000 	add	x0, x0, #0x2a0
  2041e8:	97fffe04 	bl	2039f8 <syscall_trace>
  2041ec:	d2800000 	mov	x0, #0x0                   	// #0
  2041f0:	f84107fe 	ldr	x30, [sp], #16
  2041f4:	d65f03c0 	ret

00000000002041f8 <syscall_pselect6>:
  2041f8:	f81f0ffe 	str	x30, [sp, #-16]!
  2041fc:	52800221 	mov	w1, #0x11                  	// #17
  204200:	f0000060 	adrp	x0, 213000 <__FUNCTION__.5978+0x8>
  204204:	910a2000 	add	x0, x0, #0x288
  204208:	97fffdfc 	bl	2039f8 <syscall_trace>
  20420c:	d2800000 	mov	x0, #0x0                   	// #0
  204210:	f84107fe 	ldr	x30, [sp], #16
  204214:	d65f03c0 	ret

0000000000204218 <syscall_faccessat>:
  204218:	f81f0ffe 	str	x30, [sp, #-16]!
  20421c:	52800241 	mov	w1, #0x12                  	// #18
  204220:	f0000060 	adrp	x0, 213000 <__FUNCTION__.5978+0x8>
  204224:	9109c000 	add	x0, x0, #0x270
  204228:	97fffdf4 	bl	2039f8 <syscall_trace>
  20422c:	d2800000 	mov	x0, #0x0                   	// #0
  204230:	f84107fe 	ldr	x30, [sp], #16
  204234:	d65f03c0 	ret

0000000000204238 <syscall_fchmodat>:
  204238:	f81f0ffe 	str	x30, [sp, #-16]!
  20423c:	52800221 	mov	w1, #0x11                  	// #17
  204240:	f0000060 	adrp	x0, 213000 <__FUNCTION__.5978+0x8>
  204244:	91096000 	add	x0, x0, #0x258
  204248:	97fffdec 	bl	2039f8 <syscall_trace>
  20424c:	d2800000 	mov	x0, #0x0                   	// #0
  204250:	f84107fe 	ldr	x30, [sp], #16
  204254:	d65f03c0 	ret

0000000000204258 <syscall_readlinkat>:
  204258:	f81f0ffe 	str	x30, [sp, #-16]!
  20425c:	52800261 	mov	w1, #0x13                  	// #19
  204260:	f0000060 	adrp	x0, 213000 <__FUNCTION__.5978+0x8>
  204264:	91090000 	add	x0, x0, #0x240
  204268:	97fffde4 	bl	2039f8 <syscall_trace>
  20426c:	d2800000 	mov	x0, #0x0                   	// #0
  204270:	f84107fe 	ldr	x30, [sp], #16
  204274:	d65f03c0 	ret

0000000000204278 <syscall_symlinkat>:
  204278:	f81f0ffe 	str	x30, [sp, #-16]!
  20427c:	52800241 	mov	w1, #0x12                  	// #18
  204280:	f0000060 	adrp	x0, 213000 <__FUNCTION__.5978+0x8>
  204284:	9108a000 	add	x0, x0, #0x228
  204288:	97fffddc 	bl	2039f8 <syscall_trace>
  20428c:	d2800000 	mov	x0, #0x0                   	// #0
  204290:	f84107fe 	ldr	x30, [sp], #16
  204294:	d65f03c0 	ret

0000000000204298 <syscall_linkat>:
  204298:	f81f0ffe 	str	x30, [sp, #-16]!
  20429c:	528001e1 	mov	w1, #0xf                   	// #15
  2042a0:	f0000060 	adrp	x0, 213000 <__FUNCTION__.5978+0x8>
  2042a4:	91086000 	add	x0, x0, #0x218
  2042a8:	97fffdd4 	bl	2039f8 <syscall_trace>
  2042ac:	d2800000 	mov	x0, #0x0                   	// #0
  2042b0:	f84107fe 	ldr	x30, [sp], #16
  2042b4:	d65f03c0 	ret

00000000002042b8 <syscall_renameat>:
  2042b8:	f81f0ffe 	str	x30, [sp, #-16]!
  2042bc:	52800221 	mov	w1, #0x11                  	// #17
  2042c0:	f0000060 	adrp	x0, 213000 <__FUNCTION__.5978+0x8>
  2042c4:	91080000 	add	x0, x0, #0x200
  2042c8:	97fffdcc 	bl	2039f8 <syscall_trace>
  2042cc:	d2800000 	mov	x0, #0x0                   	// #0
  2042d0:	f84107fe 	ldr	x30, [sp], #16
  2042d4:	d65f03c0 	ret

00000000002042d8 <syscall_unlinkat>:
  2042d8:	f81f0ffe 	str	x30, [sp, #-16]!
  2042dc:	52800221 	mov	w1, #0x11                  	// #17
  2042e0:	f0000060 	adrp	x0, 213000 <__FUNCTION__.5978+0x8>
  2042e4:	9107a000 	add	x0, x0, #0x1e8
  2042e8:	97fffdc4 	bl	2039f8 <syscall_trace>
  2042ec:	d2800000 	mov	x0, #0x0                   	// #0
  2042f0:	f84107fe 	ldr	x30, [sp], #16
  2042f4:	d65f03c0 	ret

00000000002042f8 <syscall_fstatat64>:
  2042f8:	f81f0ffe 	str	x30, [sp, #-16]!
  2042fc:	52800241 	mov	w1, #0x12                  	// #18
  204300:	f0000060 	adrp	x0, 213000 <__FUNCTION__.5978+0x8>
  204304:	91074000 	add	x0, x0, #0x1d0
  204308:	97fffdbc 	bl	2039f8 <syscall_trace>
  20430c:	d2800000 	mov	x0, #0x0                   	// #0
  204310:	f84107fe 	ldr	x30, [sp], #16
  204314:	d65f03c0 	ret

0000000000204318 <syscall_futimesat>:
  204318:	f81f0ffe 	str	x30, [sp, #-16]!
  20431c:	52800241 	mov	w1, #0x12                  	// #18
  204320:	f0000060 	adrp	x0, 213000 <__FUNCTION__.5978+0x8>
  204324:	9106e000 	add	x0, x0, #0x1b8
  204328:	97fffdb4 	bl	2039f8 <syscall_trace>
  20432c:	d2800000 	mov	x0, #0x0                   	// #0
  204330:	f84107fe 	ldr	x30, [sp], #16
  204334:	d65f03c0 	ret

0000000000204338 <syscall_fchownat>:
  204338:	f81f0ffe 	str	x30, [sp, #-16]!
  20433c:	52800221 	mov	w1, #0x11                  	// #17
  204340:	f0000060 	adrp	x0, 213000 <__FUNCTION__.5978+0x8>
  204344:	91068000 	add	x0, x0, #0x1a0
  204348:	97fffdac 	bl	2039f8 <syscall_trace>
  20434c:	d2800000 	mov	x0, #0x0                   	// #0
  204350:	f84107fe 	ldr	x30, [sp], #16
  204354:	d65f03c0 	ret

0000000000204358 <syscall_mknodat>:
  204358:	f81f0ffe 	str	x30, [sp, #-16]!
  20435c:	52800201 	mov	w1, #0x10                  	// #16
  204360:	f0000060 	adrp	x0, 213000 <__FUNCTION__.5978+0x8>
  204364:	91064000 	add	x0, x0, #0x190
  204368:	97fffda4 	bl	2039f8 <syscall_trace>
  20436c:	d2800000 	mov	x0, #0x0                   	// #0
  204370:	f84107fe 	ldr	x30, [sp], #16
  204374:	d65f03c0 	ret

0000000000204378 <syscall_mkdirat>:
  204378:	f81f0ffe 	str	x30, [sp, #-16]!
  20437c:	52800201 	mov	w1, #0x10                  	// #16
  204380:	f0000060 	adrp	x0, 213000 <__FUNCTION__.5978+0x8>
  204384:	91060000 	add	x0, x0, #0x180
  204388:	97fffd9c 	bl	2039f8 <syscall_trace>
  20438c:	d2800000 	mov	x0, #0x0                   	// #0
  204390:	f84107fe 	ldr	x30, [sp], #16
  204394:	d65f03c0 	ret

0000000000204398 <syscall_openat>:
  204398:	f81f0ffe 	str	x30, [sp, #-16]!
  20439c:	528001e1 	mov	w1, #0xf                   	// #15
  2043a0:	f0000060 	adrp	x0, 213000 <__FUNCTION__.5978+0x8>
  2043a4:	9105c000 	add	x0, x0, #0x170
  2043a8:	97fffd94 	bl	2039f8 <syscall_trace>
  2043ac:	d2800000 	mov	x0, #0x0                   	// #0
  2043b0:	f84107fe 	ldr	x30, [sp], #16
  2043b4:	d65f03c0 	ret

00000000002043b8 <syscall_set_mempolicy>:
  2043b8:	f81f0ffe 	str	x30, [sp, #-16]!
  2043bc:	528002c1 	mov	w1, #0x16                  	// #22
  2043c0:	f0000060 	adrp	x0, 213000 <__FUNCTION__.5978+0x8>
  2043c4:	91056000 	add	x0, x0, #0x158
  2043c8:	97fffd8c 	bl	2039f8 <syscall_trace>
  2043cc:	d2800000 	mov	x0, #0x0                   	// #0
  2043d0:	f84107fe 	ldr	x30, [sp], #16
  2043d4:	d65f03c0 	ret

00000000002043d8 <syscall_get_mempolicy>:
  2043d8:	f81f0ffe 	str	x30, [sp, #-16]!
  2043dc:	528002c1 	mov	w1, #0x16                  	// #22
  2043e0:	f0000060 	adrp	x0, 213000 <__FUNCTION__.5978+0x8>
  2043e4:	91050000 	add	x0, x0, #0x140
  2043e8:	97fffd84 	bl	2039f8 <syscall_trace>
  2043ec:	d2800000 	mov	x0, #0x0                   	// #0
  2043f0:	f84107fe 	ldr	x30, [sp], #16
  2043f4:	d65f03c0 	ret

00000000002043f8 <syscall_mbind>:
  2043f8:	f81f0ffe 	str	x30, [sp, #-16]!
  2043fc:	528001c1 	mov	w1, #0xe                   	// #14
  204400:	f0000060 	adrp	x0, 213000 <__FUNCTION__.5978+0x8>
  204404:	9104c000 	add	x0, x0, #0x130
  204408:	97fffd7c 	bl	2039f8 <syscall_trace>
  20440c:	d2800000 	mov	x0, #0x0                   	// #0
  204410:	f84107fe 	ldr	x30, [sp], #16
  204414:	d65f03c0 	ret

0000000000204418 <syscall_inotify_rm_watch>:
  204418:	f81f0ffe 	str	x30, [sp, #-16]!
  20441c:	52800321 	mov	w1, #0x19                  	// #25
  204420:	f0000060 	adrp	x0, 213000 <__FUNCTION__.5978+0x8>
  204424:	91044000 	add	x0, x0, #0x110
  204428:	97fffd74 	bl	2039f8 <syscall_trace>
  20442c:	d2800000 	mov	x0, #0x0                   	// #0
  204430:	f84107fe 	ldr	x30, [sp], #16
  204434:	d65f03c0 	ret

0000000000204438 <syscall_inotify_add_watch>:
  204438:	f81f0ffe 	str	x30, [sp, #-16]!
  20443c:	52800341 	mov	w1, #0x1a                  	// #26
  204440:	f0000060 	adrp	x0, 213000 <__FUNCTION__.5978+0x8>
  204444:	9103c000 	add	x0, x0, #0xf0
  204448:	97fffd6c 	bl	2039f8 <syscall_trace>
  20444c:	d2800000 	mov	x0, #0x0                   	// #0
  204450:	f84107fe 	ldr	x30, [sp], #16
  204454:	d65f03c0 	ret

0000000000204458 <syscall_inotify_init>:
  204458:	f81f0ffe 	str	x30, [sp, #-16]!
  20445c:	528002a1 	mov	w1, #0x15                  	// #21
  204460:	f0000060 	adrp	x0, 213000 <__FUNCTION__.5978+0x8>
  204464:	91036000 	add	x0, x0, #0xd8
  204468:	97fffd64 	bl	2039f8 <syscall_trace>
  20446c:	d2800000 	mov	x0, #0x0                   	// #0
  204470:	f84107fe 	ldr	x30, [sp], #16
  204474:	d65f03c0 	ret

0000000000204478 <syscall_ioprio_get>:
  204478:	f81f0ffe 	str	x30, [sp, #-16]!
  20447c:	52800261 	mov	w1, #0x13                  	// #19
  204480:	f0000060 	adrp	x0, 213000 <__FUNCTION__.5978+0x8>
  204484:	91030000 	add	x0, x0, #0xc0
  204488:	97fffd5c 	bl	2039f8 <syscall_trace>
  20448c:	d2800000 	mov	x0, #0x0                   	// #0
  204490:	f84107fe 	ldr	x30, [sp], #16
  204494:	d65f03c0 	ret

0000000000204498 <syscall_ioprio_set>:
  204498:	f81f0ffe 	str	x30, [sp, #-16]!
  20449c:	52800261 	mov	w1, #0x13                  	// #19
  2044a0:	f0000060 	adrp	x0, 213000 <__FUNCTION__.5978+0x8>
  2044a4:	9102a000 	add	x0, x0, #0xa8
  2044a8:	97fffd54 	bl	2039f8 <syscall_trace>
  2044ac:	d2800000 	mov	x0, #0x0                   	// #0
  2044b0:	f84107fe 	ldr	x30, [sp], #16
  2044b4:	d65f03c0 	ret

00000000002044b8 <syscall_vserver>:
  2044b8:	f81f0ffe 	str	x30, [sp, #-16]!
  2044bc:	52800201 	mov	w1, #0x10                  	// #16
  2044c0:	f0000060 	adrp	x0, 213000 <__FUNCTION__.5978+0x8>
  2044c4:	91026000 	add	x0, x0, #0x98
  2044c8:	97fffd4c 	bl	2039f8 <syscall_trace>
  2044cc:	d2800000 	mov	x0, #0x0                   	// #0
  2044d0:	f84107fe 	ldr	x30, [sp], #16
  2044d4:	d65f03c0 	ret

00000000002044d8 <syscall_semtimedop>:
  2044d8:	f81f0ffe 	str	x30, [sp, #-16]!
  2044dc:	52800261 	mov	w1, #0x13                  	// #19
  2044e0:	f0000060 	adrp	x0, 213000 <__FUNCTION__.5978+0x8>
  2044e4:	91020000 	add	x0, x0, #0x80
  2044e8:	97fffd44 	bl	2039f8 <syscall_trace>
  2044ec:	d2800000 	mov	x0, #0x0                   	// #0
  2044f0:	f84107fe 	ldr	x30, [sp], #16
  2044f4:	d65f03c0 	ret

00000000002044f8 <syscall_keyctl>:
  2044f8:	f81f0ffe 	str	x30, [sp, #-16]!
  2044fc:	528001e1 	mov	w1, #0xf                   	// #15
  204500:	f0000060 	adrp	x0, 213000 <__FUNCTION__.5978+0x8>
  204504:	9101c000 	add	x0, x0, #0x70
  204508:	97fffd3c 	bl	2039f8 <syscall_trace>
  20450c:	d2800000 	mov	x0, #0x0                   	// #0
  204510:	f84107fe 	ldr	x30, [sp], #16
  204514:	d65f03c0 	ret

0000000000204518 <syscall_request_key>:
  204518:	f81f0ffe 	str	x30, [sp, #-16]!
  20451c:	52800281 	mov	w1, #0x14                  	// #20
  204520:	f0000060 	adrp	x0, 213000 <__FUNCTION__.5978+0x8>
  204524:	91016000 	add	x0, x0, #0x58
  204528:	97fffd34 	bl	2039f8 <syscall_trace>
  20452c:	d2800000 	mov	x0, #0x0                   	// #0
  204530:	f84107fe 	ldr	x30, [sp], #16
  204534:	d65f03c0 	ret

0000000000204538 <syscall_add_key>:
  204538:	f81f0ffe 	str	x30, [sp, #-16]!
  20453c:	52800201 	mov	w1, #0x10                  	// #16
  204540:	f0000060 	adrp	x0, 213000 <__FUNCTION__.5978+0x8>
  204544:	91012000 	add	x0, x0, #0x48
  204548:	97fffd2c 	bl	2039f8 <syscall_trace>
  20454c:	d2800000 	mov	x0, #0x0                   	// #0
  204550:	f84107fe 	ldr	x30, [sp], #16
  204554:	d65f03c0 	ret

0000000000204558 <syscall_msgctl>:
  204558:	f81f0ffe 	str	x30, [sp, #-16]!
  20455c:	528001e1 	mov	w1, #0xf                   	// #15
  204560:	f0000060 	adrp	x0, 213000 <__FUNCTION__.5978+0x8>
  204564:	9100e000 	add	x0, x0, #0x38
  204568:	97fffd24 	bl	2039f8 <syscall_trace>
  20456c:	d2800000 	mov	x0, #0x0                   	// #0
  204570:	f84107fe 	ldr	x30, [sp], #16
  204574:	d65f03c0 	ret

0000000000204578 <syscall_msgget>:
  204578:	f81f0ffe 	str	x30, [sp, #-16]!
  20457c:	528001e1 	mov	w1, #0xf                   	// #15
  204580:	f0000060 	adrp	x0, 213000 <__FUNCTION__.5978+0x8>
  204584:	9100a000 	add	x0, x0, #0x28
  204588:	97fffd1c 	bl	2039f8 <syscall_trace>
  20458c:	d2800000 	mov	x0, #0x0                   	// #0
  204590:	f84107fe 	ldr	x30, [sp], #16
  204594:	d65f03c0 	ret

0000000000204598 <syscall_msgrcv>:
  204598:	f81f0ffe 	str	x30, [sp, #-16]!
  20459c:	528001e1 	mov	w1, #0xf                   	// #15
  2045a0:	f0000060 	adrp	x0, 213000 <__FUNCTION__.5978+0x8>
  2045a4:	91006000 	add	x0, x0, #0x18
  2045a8:	97fffd14 	bl	2039f8 <syscall_trace>
  2045ac:	d2800000 	mov	x0, #0x0                   	// #0
  2045b0:	f84107fe 	ldr	x30, [sp], #16
  2045b4:	d65f03c0 	ret

00000000002045b8 <syscall_msgsnd>:
  2045b8:	f81f0ffe 	str	x30, [sp, #-16]!
  2045bc:	528001e1 	mov	w1, #0xf                   	// #15
  2045c0:	f0000060 	adrp	x0, 213000 <__FUNCTION__.5978+0x8>
  2045c4:	91002000 	add	x0, x0, #0x8
  2045c8:	97fffd0c 	bl	2039f8 <syscall_trace>
  2045cc:	d2800000 	mov	x0, #0x0                   	// #0
  2045d0:	f84107fe 	ldr	x30, [sp], #16
  2045d4:	d65f03c0 	ret

00000000002045d8 <syscall_semctl>:
  2045d8:	f81f0ffe 	str	x30, [sp, #-16]!
  2045dc:	528001e1 	mov	w1, #0xf                   	// #15
  2045e0:	d0000060 	adrp	x0, 212000 <errmsg+0x4b8>
  2045e4:	913fe000 	add	x0, x0, #0xff8
  2045e8:	97fffd04 	bl	2039f8 <syscall_trace>
  2045ec:	d2800000 	mov	x0, #0x0                   	// #0
  2045f0:	f84107fe 	ldr	x30, [sp], #16
  2045f4:	d65f03c0 	ret

00000000002045f8 <syscall_semget>:
  2045f8:	f81f0ffe 	str	x30, [sp, #-16]!
  2045fc:	528001e1 	mov	w1, #0xf                   	// #15
  204600:	d0000060 	adrp	x0, 212000 <errmsg+0x4b8>
  204604:	913fa000 	add	x0, x0, #0xfe8
  204608:	97fffcfc 	bl	2039f8 <syscall_trace>
  20460c:	d2800000 	mov	x0, #0x0                   	// #0
  204610:	f84107fe 	ldr	x30, [sp], #16
  204614:	d65f03c0 	ret

0000000000204618 <syscall_semop>:
  204618:	f81f0ffe 	str	x30, [sp, #-16]!
  20461c:	528001c1 	mov	w1, #0xe                   	// #14
  204620:	d0000060 	adrp	x0, 212000 <errmsg+0x4b8>
  204624:	913f6000 	add	x0, x0, #0xfd8
  204628:	97fffcf4 	bl	2039f8 <syscall_trace>
  20462c:	d2800000 	mov	x0, #0x0                   	// #0
  204630:	f84107fe 	ldr	x30, [sp], #16
  204634:	d65f03c0 	ret

0000000000204638 <syscall_recvmsg>:
  204638:	f81f0ffe 	str	x30, [sp, #-16]!
  20463c:	52800201 	mov	w1, #0x10                  	// #16
  204640:	d0000060 	adrp	x0, 212000 <errmsg+0x4b8>
  204644:	913f2000 	add	x0, x0, #0xfc8
  204648:	97fffcec 	bl	2039f8 <syscall_trace>
  20464c:	d2800000 	mov	x0, #0x0                   	// #0
  204650:	f84107fe 	ldr	x30, [sp], #16
  204654:	d65f03c0 	ret

0000000000204658 <syscall_sendmsg>:
  204658:	f81f0ffe 	str	x30, [sp, #-16]!
  20465c:	52800201 	mov	w1, #0x10                  	// #16
  204660:	d0000060 	adrp	x0, 212000 <errmsg+0x4b8>
  204664:	913ee000 	add	x0, x0, #0xfb8
  204668:	97fffce4 	bl	2039f8 <syscall_trace>
  20466c:	d2800000 	mov	x0, #0x0                   	// #0
  204670:	f84107fe 	ldr	x30, [sp], #16
  204674:	d65f03c0 	ret

0000000000204678 <syscall_shutdown>:
  204678:	f81f0ffe 	str	x30, [sp, #-16]!
  20467c:	52800221 	mov	w1, #0x11                  	// #17
  204680:	d0000060 	adrp	x0, 212000 <errmsg+0x4b8>
  204684:	913e8000 	add	x0, x0, #0xfa0
  204688:	97fffcdc 	bl	2039f8 <syscall_trace>
  20468c:	d2800000 	mov	x0, #0x0                   	// #0
  204690:	f84107fe 	ldr	x30, [sp], #16
  204694:	d65f03c0 	ret

0000000000204698 <syscall_socketpair>:
  204698:	f81f0ffe 	str	x30, [sp, #-16]!
  20469c:	52800261 	mov	w1, #0x13                  	// #19
  2046a0:	d0000060 	adrp	x0, 212000 <errmsg+0x4b8>
  2046a4:	913e2000 	add	x0, x0, #0xf88
  2046a8:	97fffcd4 	bl	2039f8 <syscall_trace>
  2046ac:	d2800000 	mov	x0, #0x0                   	// #0
  2046b0:	f84107fe 	ldr	x30, [sp], #16
  2046b4:	d65f03c0 	ret

00000000002046b8 <syscall_waitid>:
  2046b8:	f81f0ffe 	str	x30, [sp, #-16]!
  2046bc:	528001e1 	mov	w1, #0xf                   	// #15
  2046c0:	d0000060 	adrp	x0, 212000 <errmsg+0x4b8>
  2046c4:	913de000 	add	x0, x0, #0xf78
  2046c8:	97fffccc 	bl	2039f8 <syscall_trace>
  2046cc:	d2800000 	mov	x0, #0x0                   	// #0
  2046d0:	f84107fe 	ldr	x30, [sp], #16
  2046d4:	d65f03c0 	ret

00000000002046d8 <syscall_pciconfig_write>:
  2046d8:	f81f0ffe 	str	x30, [sp, #-16]!
  2046dc:	52800301 	mov	w1, #0x18                  	// #24
  2046e0:	d0000060 	adrp	x0, 212000 <errmsg+0x4b8>
  2046e4:	913d8000 	add	x0, x0, #0xf60
  2046e8:	97fffcc4 	bl	2039f8 <syscall_trace>
  2046ec:	d2800000 	mov	x0, #0x0                   	// #0
  2046f0:	f84107fe 	ldr	x30, [sp], #16
  2046f4:	d65f03c0 	ret

00000000002046f8 <syscall_pciconfig_read>:
  2046f8:	f81f0ffe 	str	x30, [sp, #-16]!
  2046fc:	528002e1 	mov	w1, #0x17                  	// #23
  204700:	d0000060 	adrp	x0, 212000 <errmsg+0x4b8>
  204704:	913d2000 	add	x0, x0, #0xf48
  204708:	97fffcbc 	bl	2039f8 <syscall_trace>
  20470c:	d2800000 	mov	x0, #0x0                   	// #0
  204710:	f84107fe 	ldr	x30, [sp], #16
  204714:	d65f03c0 	ret

0000000000204718 <syscall_pciconfig_iobase>:
  204718:	f81f0ffe 	str	x30, [sp, #-16]!
  20471c:	52800321 	mov	w1, #0x19                  	// #25
  204720:	d0000060 	adrp	x0, 212000 <errmsg+0x4b8>
  204724:	913ca000 	add	x0, x0, #0xf28
  204728:	97fffcb4 	bl	2039f8 <syscall_trace>
  20472c:	d2800000 	mov	x0, #0x0                   	// #0
  204730:	f84107fe 	ldr	x30, [sp], #16
  204734:	d65f03c0 	ret

0000000000204738 <syscall_arm_fadvise64_64>:
  204738:	f81f0ffe 	str	x30, [sp, #-16]!
  20473c:	52800321 	mov	w1, #0x19                  	// #25
  204740:	d0000060 	adrp	x0, 212000 <errmsg+0x4b8>
  204744:	913c2000 	add	x0, x0, #0xf08
  204748:	97fffcac 	bl	2039f8 <syscall_trace>
  20474c:	d2800000 	mov	x0, #0x0                   	// #0
  204750:	f84107fe 	ldr	x30, [sp], #16
  204754:	d65f03c0 	ret

0000000000204758 <syscall_utimes>:
  204758:	f81f0ffe 	str	x30, [sp, #-16]!
  20475c:	528001e1 	mov	w1, #0xf                   	// #15
  204760:	d0000060 	adrp	x0, 212000 <errmsg+0x4b8>
  204764:	913be000 	add	x0, x0, #0xef8
  204768:	97fffca4 	bl	2039f8 <syscall_trace>
  20476c:	d2800000 	mov	x0, #0x0                   	// #0
  204770:	f84107fe 	ldr	x30, [sp], #16
  204774:	d65f03c0 	ret

0000000000204778 <syscall_tgkill>:
  204778:	f81f0ffe 	str	x30, [sp, #-16]!
  20477c:	528001e1 	mov	w1, #0xf                   	// #15
  204780:	d0000060 	adrp	x0, 212000 <errmsg+0x4b8>
  204784:	913ba000 	add	x0, x0, #0xee8
  204788:	97fffc9c 	bl	2039f8 <syscall_trace>
  20478c:	d2800000 	mov	x0, #0x0                   	// #0
  204790:	f84107fe 	ldr	x30, [sp], #16
  204794:	d65f03c0 	ret

0000000000204798 <syscall_fstatfs64>:
  204798:	f81f0ffe 	str	x30, [sp, #-16]!
  20479c:	52800241 	mov	w1, #0x12                  	// #18
  2047a0:	d0000060 	adrp	x0, 212000 <errmsg+0x4b8>
  2047a4:	913b4000 	add	x0, x0, #0xed0
  2047a8:	97fffc94 	bl	2039f8 <syscall_trace>
  2047ac:	d2800000 	mov	x0, #0x0                   	// #0
  2047b0:	f84107fe 	ldr	x30, [sp], #16
  2047b4:	d65f03c0 	ret

00000000002047b8 <syscall_statfs64>:
  2047b8:	f81f0ffe 	str	x30, [sp, #-16]!
  2047bc:	52800221 	mov	w1, #0x11                  	// #17
  2047c0:	d0000060 	adrp	x0, 212000 <errmsg+0x4b8>
  2047c4:	913ae000 	add	x0, x0, #0xeb8
  2047c8:	97fffc8c 	bl	2039f8 <syscall_trace>
  2047cc:	d2800000 	mov	x0, #0x0                   	// #0
  2047d0:	f84107fe 	ldr	x30, [sp], #16
  2047d4:	d65f03c0 	ret

00000000002047d8 <syscall_remap_file_pages>:
  2047d8:	f81f0ffe 	str	x30, [sp, #-16]!
  2047dc:	52800321 	mov	w1, #0x19                  	// #25
  2047e0:	d0000060 	adrp	x0, 212000 <errmsg+0x4b8>
  2047e4:	913a6000 	add	x0, x0, #0xe98
  2047e8:	97fffc84 	bl	2039f8 <syscall_trace>
  2047ec:	d2800000 	mov	x0, #0x0                   	// #0
  2047f0:	f84107fe 	ldr	x30, [sp], #16
  2047f4:	d65f03c0 	ret

00000000002047f8 <syscall_epoll_wait>:
  2047f8:	f81f0ffe 	str	x30, [sp, #-16]!
  2047fc:	52800261 	mov	w1, #0x13                  	// #19
  204800:	d0000060 	adrp	x0, 212000 <errmsg+0x4b8>
  204804:	913a0000 	add	x0, x0, #0xe80
  204808:	97fffc7c 	bl	2039f8 <syscall_trace>
  20480c:	928004a0 	mov	x0, #0xffffffffffffffda    	// #-38
  204810:	f84107fe 	ldr	x30, [sp], #16
  204814:	d65f03c0 	ret

0000000000204818 <syscall_epoll_ctl>:
  204818:	f81f0ffe 	str	x30, [sp, #-16]!
  20481c:	52800241 	mov	w1, #0x12                  	// #18
  204820:	d0000060 	adrp	x0, 212000 <errmsg+0x4b8>
  204824:	9139a000 	add	x0, x0, #0xe68
  204828:	97fffc74 	bl	2039f8 <syscall_trace>
  20482c:	928004a0 	mov	x0, #0xffffffffffffffda    	// #-38
  204830:	f84107fe 	ldr	x30, [sp], #16
  204834:	d65f03c0 	ret

0000000000204838 <syscall_epoll_create>:
  204838:	f81f0ffe 	str	x30, [sp, #-16]!
  20483c:	528002a1 	mov	w1, #0x15                  	// #21
  204840:	d0000060 	adrp	x0, 212000 <errmsg+0x4b8>
  204844:	91394000 	add	x0, x0, #0xe50
  204848:	97fffc6c 	bl	2039f8 <syscall_trace>
  20484c:	928004a0 	mov	x0, #0xffffffffffffffda    	// #-38
  204850:	f84107fe 	ldr	x30, [sp], #16
  204854:	d65f03c0 	ret

0000000000204858 <syscall_lookup_dcookie>:
  204858:	f81f0ffe 	str	x30, [sp, #-16]!
  20485c:	528002e1 	mov	w1, #0x17                  	// #23
  204860:	d0000060 	adrp	x0, 212000 <errmsg+0x4b8>
  204864:	9138e000 	add	x0, x0, #0xe38
  204868:	97fffc64 	bl	2039f8 <syscall_trace>
  20486c:	d2800000 	mov	x0, #0x0                   	// #0
  204870:	f84107fe 	ldr	x30, [sp], #16
  204874:	d65f03c0 	ret

0000000000204878 <syscall_io_cancel>:
  204878:	f81f0ffe 	str	x30, [sp, #-16]!
  20487c:	52800241 	mov	w1, #0x12                  	// #18
  204880:	d0000060 	adrp	x0, 212000 <errmsg+0x4b8>
  204884:	91388000 	add	x0, x0, #0xe20
  204888:	97fffc5c 	bl	2039f8 <syscall_trace>
  20488c:	d2800000 	mov	x0, #0x0                   	// #0
  204890:	f84107fe 	ldr	x30, [sp], #16
  204894:	d65f03c0 	ret

0000000000204898 <syscall_io_submit>:
  204898:	f81f0ffe 	str	x30, [sp, #-16]!
  20489c:	52800241 	mov	w1, #0x12                  	// #18
  2048a0:	d0000060 	adrp	x0, 212000 <errmsg+0x4b8>
  2048a4:	91382000 	add	x0, x0, #0xe08
  2048a8:	97fffc54 	bl	2039f8 <syscall_trace>
  2048ac:	d2800000 	mov	x0, #0x0                   	// #0
  2048b0:	f84107fe 	ldr	x30, [sp], #16
  2048b4:	d65f03c0 	ret

00000000002048b8 <syscall_io_getevents>:
  2048b8:	f81f0ffe 	str	x30, [sp, #-16]!
  2048bc:	528002a1 	mov	w1, #0x15                  	// #21
  2048c0:	d0000060 	adrp	x0, 212000 <errmsg+0x4b8>
  2048c4:	9137c000 	add	x0, x0, #0xdf0
  2048c8:	97fffc4c 	bl	2039f8 <syscall_trace>
  2048cc:	d2800000 	mov	x0, #0x0                   	// #0
  2048d0:	f84107fe 	ldr	x30, [sp], #16
  2048d4:	d65f03c0 	ret

00000000002048d8 <syscall_io_destroy>:
  2048d8:	f81f0ffe 	str	x30, [sp, #-16]!
  2048dc:	52800261 	mov	w1, #0x13                  	// #19
  2048e0:	d0000060 	adrp	x0, 212000 <errmsg+0x4b8>
  2048e4:	91376000 	add	x0, x0, #0xdd8
  2048e8:	97fffc44 	bl	2039f8 <syscall_trace>
  2048ec:	d2800000 	mov	x0, #0x0                   	// #0
  2048f0:	f84107fe 	ldr	x30, [sp], #16
  2048f4:	d65f03c0 	ret

00000000002048f8 <syscall_io_setup>:
  2048f8:	f81f0ffe 	str	x30, [sp, #-16]!
  2048fc:	52800221 	mov	w1, #0x11                  	// #17
  204900:	d0000060 	adrp	x0, 212000 <errmsg+0x4b8>
  204904:	91370000 	add	x0, x0, #0xdc0
  204908:	97fffc3c 	bl	2039f8 <syscall_trace>
  20490c:	d2800000 	mov	x0, #0x0                   	// #0
  204910:	f84107fe 	ldr	x30, [sp], #16
  204914:	d65f03c0 	ret

0000000000204918 <syscall_sched_getaffinity>:
  204918:	f81f0ffe 	str	x30, [sp, #-16]!
  20491c:	52800341 	mov	w1, #0x1a                  	// #26
  204920:	d0000060 	adrp	x0, 212000 <errmsg+0x4b8>
  204924:	91368000 	add	x0, x0, #0xda0
  204928:	97fffc34 	bl	2039f8 <syscall_trace>
  20492c:	d2800000 	mov	x0, #0x0                   	// #0
  204930:	f84107fe 	ldr	x30, [sp], #16
  204934:	d65f03c0 	ret

0000000000204938 <syscall_sendfile64>:
  204938:	f81f0ffe 	str	x30, [sp, #-16]!
  20493c:	52800261 	mov	w1, #0x13                  	// #19
  204940:	d0000060 	adrp	x0, 212000 <errmsg+0x4b8>
  204944:	91362000 	add	x0, x0, #0xd88
  204948:	97fffc2c 	bl	2039f8 <syscall_trace>
  20494c:	d2800000 	mov	x0, #0x0                   	// #0
  204950:	f84107fe 	ldr	x30, [sp], #16
  204954:	d65f03c0 	ret

0000000000204958 <syscall_fremovexattr>:
  204958:	f81f0ffe 	str	x30, [sp, #-16]!
  20495c:	528002a1 	mov	w1, #0x15                  	// #21
  204960:	d0000060 	adrp	x0, 212000 <errmsg+0x4b8>
  204964:	9135c000 	add	x0, x0, #0xd70
  204968:	97fffc24 	bl	2039f8 <syscall_trace>
  20496c:	d2800000 	mov	x0, #0x0                   	// #0
  204970:	f84107fe 	ldr	x30, [sp], #16
  204974:	d65f03c0 	ret

0000000000204978 <syscall_lremovexattr>:
  204978:	f81f0ffe 	str	x30, [sp, #-16]!
  20497c:	528002a1 	mov	w1, #0x15                  	// #21
  204980:	d0000060 	adrp	x0, 212000 <errmsg+0x4b8>
  204984:	91356000 	add	x0, x0, #0xd58
  204988:	97fffc1c 	bl	2039f8 <syscall_trace>
  20498c:	d2800000 	mov	x0, #0x0                   	// #0
  204990:	f84107fe 	ldr	x30, [sp], #16
  204994:	d65f03c0 	ret

0000000000204998 <syscall_removexattr>:
  204998:	f81f0ffe 	str	x30, [sp, #-16]!
  20499c:	52800281 	mov	w1, #0x14                  	// #20
  2049a0:	d0000060 	adrp	x0, 212000 <errmsg+0x4b8>
  2049a4:	91350000 	add	x0, x0, #0xd40
  2049a8:	97fffc14 	bl	2039f8 <syscall_trace>
  2049ac:	d2800000 	mov	x0, #0x0                   	// #0
  2049b0:	f84107fe 	ldr	x30, [sp], #16
  2049b4:	d65f03c0 	ret

00000000002049b8 <syscall_flistxattr>:
  2049b8:	f81f0ffe 	str	x30, [sp, #-16]!
  2049bc:	52800261 	mov	w1, #0x13                  	// #19
  2049c0:	d0000060 	adrp	x0, 212000 <errmsg+0x4b8>
  2049c4:	9134a000 	add	x0, x0, #0xd28
  2049c8:	97fffc0c 	bl	2039f8 <syscall_trace>
  2049cc:	d2800000 	mov	x0, #0x0                   	// #0
  2049d0:	f84107fe 	ldr	x30, [sp], #16
  2049d4:	d65f03c0 	ret

00000000002049d8 <syscall_llistxattr>:
  2049d8:	f81f0ffe 	str	x30, [sp, #-16]!
  2049dc:	52800261 	mov	w1, #0x13                  	// #19
  2049e0:	d0000060 	adrp	x0, 212000 <errmsg+0x4b8>
  2049e4:	91344000 	add	x0, x0, #0xd10
  2049e8:	97fffc04 	bl	2039f8 <syscall_trace>
  2049ec:	d2800000 	mov	x0, #0x0                   	// #0
  2049f0:	f84107fe 	ldr	x30, [sp], #16
  2049f4:	d65f03c0 	ret

00000000002049f8 <syscall_listxattr>:
  2049f8:	f81f0ffe 	str	x30, [sp, #-16]!
  2049fc:	52800241 	mov	w1, #0x12                  	// #18
  204a00:	d0000060 	adrp	x0, 212000 <errmsg+0x4b8>
  204a04:	9133e000 	add	x0, x0, #0xcf8
  204a08:	97fffbfc 	bl	2039f8 <syscall_trace>
  204a0c:	d2800000 	mov	x0, #0x0                   	// #0
  204a10:	f84107fe 	ldr	x30, [sp], #16
  204a14:	d65f03c0 	ret

0000000000204a18 <syscall_fgetxattr>:
  204a18:	f81f0ffe 	str	x30, [sp, #-16]!
  204a1c:	52800241 	mov	w1, #0x12                  	// #18
  204a20:	d0000060 	adrp	x0, 212000 <errmsg+0x4b8>
  204a24:	91338000 	add	x0, x0, #0xce0
  204a28:	97fffbf4 	bl	2039f8 <syscall_trace>
  204a2c:	d2800000 	mov	x0, #0x0                   	// #0
  204a30:	f84107fe 	ldr	x30, [sp], #16
  204a34:	d65f03c0 	ret

0000000000204a38 <syscall_lgetxattr>:
  204a38:	f81f0ffe 	str	x30, [sp, #-16]!
  204a3c:	52800241 	mov	w1, #0x12                  	// #18
  204a40:	d0000060 	adrp	x0, 212000 <errmsg+0x4b8>
  204a44:	91332000 	add	x0, x0, #0xcc8
  204a48:	97fffbec 	bl	2039f8 <syscall_trace>
  204a4c:	d2800000 	mov	x0, #0x0                   	// #0
  204a50:	f84107fe 	ldr	x30, [sp], #16
  204a54:	d65f03c0 	ret

0000000000204a58 <syscall_getxattr>:
  204a58:	f81f0ffe 	str	x30, [sp, #-16]!
  204a5c:	52800221 	mov	w1, #0x11                  	// #17
  204a60:	d0000060 	adrp	x0, 212000 <errmsg+0x4b8>
  204a64:	9132c000 	add	x0, x0, #0xcb0
  204a68:	97fffbe4 	bl	2039f8 <syscall_trace>
  204a6c:	d2800000 	mov	x0, #0x0                   	// #0
  204a70:	f84107fe 	ldr	x30, [sp], #16
  204a74:	d65f03c0 	ret

0000000000204a78 <syscall_fsetxattr>:
  204a78:	f81f0ffe 	str	x30, [sp, #-16]!
  204a7c:	52800241 	mov	w1, #0x12                  	// #18
  204a80:	d0000060 	adrp	x0, 212000 <errmsg+0x4b8>
  204a84:	91326000 	add	x0, x0, #0xc98
  204a88:	97fffbdc 	bl	2039f8 <syscall_trace>
  204a8c:	d2800000 	mov	x0, #0x0                   	// #0
  204a90:	f84107fe 	ldr	x30, [sp], #16
  204a94:	d65f03c0 	ret

0000000000204a98 <syscall_lsetxattr>:
  204a98:	f81f0ffe 	str	x30, [sp, #-16]!
  204a9c:	52800241 	mov	w1, #0x12                  	// #18
  204aa0:	d0000060 	adrp	x0, 212000 <errmsg+0x4b8>
  204aa4:	91320000 	add	x0, x0, #0xc80
  204aa8:	97fffbd4 	bl	2039f8 <syscall_trace>
  204aac:	d2800000 	mov	x0, #0x0                   	// #0
  204ab0:	f84107fe 	ldr	x30, [sp], #16
  204ab4:	d65f03c0 	ret

0000000000204ab8 <syscall_setxattr>:
  204ab8:	f81f0ffe 	str	x30, [sp, #-16]!
  204abc:	52800221 	mov	w1, #0x11                  	// #17
  204ac0:	d0000060 	adrp	x0, 212000 <errmsg+0x4b8>
  204ac4:	9131a000 	add	x0, x0, #0xc68
  204ac8:	97fffbcc 	bl	2039f8 <syscall_trace>
  204acc:	d2800000 	mov	x0, #0x0                   	// #0
  204ad0:	f84107fe 	ldr	x30, [sp], #16
  204ad4:	d65f03c0 	ret

0000000000204ad8 <syscall_readahead>:
  204ad8:	f81f0ffe 	str	x30, [sp, #-16]!
  204adc:	52800241 	mov	w1, #0x12                  	// #18
  204ae0:	d0000060 	adrp	x0, 212000 <errmsg+0x4b8>
  204ae4:	91314000 	add	x0, x0, #0xc50
  204ae8:	97fffbc4 	bl	2039f8 <syscall_trace>
